
mm.riscv:     file format elf64-littleriscv


Disassembly of section .text.init:

0000000080000000 <_start>:
    80000000:	00000093          	li	ra,0
    80000004:	00000113          	li	sp,0
    80000008:	00000193          	li	gp,0
    8000000c:	00000213          	li	tp,0
    80000010:	00000293          	li	t0,0
    80000014:	00000313          	li	t1,0
    80000018:	00000393          	li	t2,0
    8000001c:	00000413          	li	s0,0
    80000020:	00000493          	li	s1,0
    80000024:	00000513          	li	a0,0
    80000028:	00000593          	li	a1,0
    8000002c:	00000613          	li	a2,0
    80000030:	00000693          	li	a3,0
    80000034:	00000713          	li	a4,0
    80000038:	00000793          	li	a5,0
    8000003c:	00000813          	li	a6,0
    80000040:	00000893          	li	a7,0
    80000044:	00000913          	li	s2,0
    80000048:	00000993          	li	s3,0
    8000004c:	00000a13          	li	s4,0
    80000050:	00000a93          	li	s5,0
    80000054:	00000b13          	li	s6,0
    80000058:	00000b93          	li	s7,0
    8000005c:	00000c13          	li	s8,0
    80000060:	00000c93          	li	s9,0
    80000064:	00000d13          	li	s10,0
    80000068:	00000d93          	li	s11,0
    8000006c:	00000e13          	li	t3,0
    80000070:	00000e93          	li	t4,0
    80000074:	00000f13          	li	t5,0
    80000078:	00000f93          	li	t6,0
    8000007c:	0001e2b7          	lui	t0,0x1e
    80000080:	3002a073          	csrs	mstatus,t0
    80000084:	00100293          	li	t0,1
    80000088:	01f29293          	slli	t0,t0,0x1f
    8000008c:	0002da63          	bgez	t0,800000a0 <_start+0xa0>
    80000090:	00100513          	li	a0,1
    80000094:	00001297          	auipc	t0,0x1
    80000098:	f6a2a623          	sw	a0,-148(t0) # 80001000 <tohost>
    8000009c:	ff5ff06f          	j	80000090 <_start+0x90>
    800000a0:	00000297          	auipc	t0,0x0
    800000a4:	09028293          	addi	t0,t0,144 # 80000130 <_start+0x130>
    800000a8:	30529073          	csrw	mtvec,t0
    800000ac:	00301073          	fscsr	zero
    800000b0:	f0000053          	fmv.w.x	ft0,zero
    800000b4:	f00000d3          	fmv.w.x	ft1,zero
    800000b8:	f0000153          	fmv.w.x	ft2,zero
    800000bc:	f00001d3          	fmv.w.x	ft3,zero
    800000c0:	f0000253          	fmv.w.x	ft4,zero
    800000c4:	f00002d3          	fmv.w.x	ft5,zero
    800000c8:	f0000353          	fmv.w.x	ft6,zero
    800000cc:	f00003d3          	fmv.w.x	ft7,zero
    800000d0:	f0000453          	fmv.w.x	fs0,zero
    800000d4:	f00004d3          	fmv.w.x	fs1,zero
    800000d8:	f0000553          	fmv.w.x	fa0,zero
    800000dc:	f00005d3          	fmv.w.x	fa1,zero
    800000e0:	f0000653          	fmv.w.x	fa2,zero
    800000e4:	f00006d3          	fmv.w.x	fa3,zero
    800000e8:	f0000753          	fmv.w.x	fa4,zero
    800000ec:	f00007d3          	fmv.w.x	fa5,zero
    800000f0:	f0000853          	fmv.w.x	fa6,zero
    800000f4:	f00008d3          	fmv.w.x	fa7,zero
    800000f8:	f0000953          	fmv.w.x	fs2,zero
    800000fc:	f00009d3          	fmv.w.x	fs3,zero
    80000100:	f0000a53          	fmv.w.x	fs4,zero
    80000104:	f0000ad3          	fmv.w.x	fs5,zero
    80000108:	f0000b53          	fmv.w.x	fs6,zero
    8000010c:	f0000bd3          	fmv.w.x	fs7,zero
    80000110:	f0000c53          	fmv.w.x	fs8,zero
    80000114:	f0000cd3          	fmv.w.x	fs9,zero
    80000118:	f0000d53          	fmv.w.x	fs10,zero
    8000011c:	f0000dd3          	fmv.w.x	fs11,zero
    80000120:	f0000e53          	fmv.w.x	ft8,zero
    80000124:	f0000ed3          	fmv.w.x	ft9,zero
    80000128:	f0000f53          	fmv.w.x	ft10,zero
    8000012c:	f0000fd3          	fmv.w.x	ft11,zero
    80000130:	00000297          	auipc	t0,0x0
    80000134:	04028293          	addi	t0,t0,64 # 80000170 <trap_entry>
    80000138:	30529073          	csrw	mtvec,t0
    8000013c:	00006197          	auipc	gp,0x6
    80000140:	fe418193          	addi	gp,gp,-28 # 80006120 <__global_pointer$>
    80000144:	adf18213          	addi	tp,gp,-1313 # 80005bff <_end+0x3f>
    80000148:	fc027213          	andi	tp,tp,-64
    8000014c:	f1402573          	csrr	a0,mhartid
    80000150:	00100593          	li	a1,1
    80000154:	00b57063          	bgeu	a0,a1,80000154 <_start+0x154>
    80000158:	00150113          	addi	sp,a0,1
    8000015c:	01111113          	slli	sp,sp,0x11
    80000160:	00410133          	add	sp,sp,tp
    80000164:	01151613          	slli	a2,a0,0x11
    80000168:	00c20233          	add	tp,tp,a2
    8000016c:	5680506f          	j	800056d4 <_init>

0000000080000170 <trap_entry>:
    80000170:	ef010113          	addi	sp,sp,-272
    80000174:	00113423          	sd	ra,8(sp)
    80000178:	00213823          	sd	sp,16(sp)
    8000017c:	00313c23          	sd	gp,24(sp)
    80000180:	02413023          	sd	tp,32(sp)
    80000184:	02513423          	sd	t0,40(sp)
    80000188:	02613823          	sd	t1,48(sp)
    8000018c:	02713c23          	sd	t2,56(sp)
    80000190:	04813023          	sd	s0,64(sp)
    80000194:	04913423          	sd	s1,72(sp)
    80000198:	04a13823          	sd	a0,80(sp)
    8000019c:	04b13c23          	sd	a1,88(sp)
    800001a0:	06c13023          	sd	a2,96(sp)
    800001a4:	06d13423          	sd	a3,104(sp)
    800001a8:	06e13823          	sd	a4,112(sp)
    800001ac:	06f13c23          	sd	a5,120(sp)
    800001b0:	09013023          	sd	a6,128(sp)
    800001b4:	09113423          	sd	a7,136(sp)
    800001b8:	09213823          	sd	s2,144(sp)
    800001bc:	09313c23          	sd	s3,152(sp)
    800001c0:	0b413023          	sd	s4,160(sp)
    800001c4:	0b513423          	sd	s5,168(sp)
    800001c8:	0b613823          	sd	s6,176(sp)
    800001cc:	0b713c23          	sd	s7,184(sp)
    800001d0:	0d813023          	sd	s8,192(sp)
    800001d4:	0d913423          	sd	s9,200(sp)
    800001d8:	0da13823          	sd	s10,208(sp)
    800001dc:	0db13c23          	sd	s11,216(sp)
    800001e0:	0fc13023          	sd	t3,224(sp)
    800001e4:	0fd13423          	sd	t4,232(sp)
    800001e8:	0fe13823          	sd	t5,240(sp)
    800001ec:	0ff13c23          	sd	t6,248(sp)
    800001f0:	34202573          	csrr	a0,mcause
    800001f4:	341025f3          	csrr	a1,mepc
    800001f8:	00010613          	mv	a2,sp
    800001fc:	248050ef          	jal	ra,80005444 <handle_trap>
    80000200:	34151073          	csrw	mepc,a0
    80000204:	000022b7          	lui	t0,0x2
    80000208:	8002829b          	addiw	t0,t0,-2048
    8000020c:	3002a073          	csrs	mstatus,t0
    80000210:	00813083          	ld	ra,8(sp)
    80000214:	01013103          	ld	sp,16(sp)
    80000218:	01813183          	ld	gp,24(sp)
    8000021c:	02013203          	ld	tp,32(sp)
    80000220:	02813283          	ld	t0,40(sp)
    80000224:	03013303          	ld	t1,48(sp)
    80000228:	03813383          	ld	t2,56(sp)
    8000022c:	04013403          	ld	s0,64(sp)
    80000230:	04813483          	ld	s1,72(sp)
    80000234:	05013503          	ld	a0,80(sp)
    80000238:	05813583          	ld	a1,88(sp)
    8000023c:	06013603          	ld	a2,96(sp)
    80000240:	06813683          	ld	a3,104(sp)
    80000244:	07013703          	ld	a4,112(sp)
    80000248:	07813783          	ld	a5,120(sp)
    8000024c:	08013803          	ld	a6,128(sp)
    80000250:	08813883          	ld	a7,136(sp)
    80000254:	09013903          	ld	s2,144(sp)
    80000258:	09813983          	ld	s3,152(sp)
    8000025c:	0a013a03          	ld	s4,160(sp)
    80000260:	0a813a83          	ld	s5,168(sp)
    80000264:	0b013b03          	ld	s6,176(sp)
    80000268:	0b813b83          	ld	s7,184(sp)
    8000026c:	0c013c03          	ld	s8,192(sp)
    80000270:	0c813c83          	ld	s9,200(sp)
    80000274:	0d013d03          	ld	s10,208(sp)
    80000278:	0d813d83          	ld	s11,216(sp)
    8000027c:	0e013e03          	ld	t3,224(sp)
    80000280:	0e813e83          	ld	t4,232(sp)
    80000284:	0f013f03          	ld	t5,240(sp)
    80000288:	0f813f83          	ld	t6,248(sp)
    8000028c:	11010113          	addi	sp,sp,272
    80000290:	30200073          	mret

Disassembly of section .text:

0000000080002000 <mm_naive>:
    80002000:	1e050263          	beqz	a0,800021e4 <mm_naive+0x1e4>
    80002004:	f9010113          	addi	sp,sp,-112
    80002008:	ffc67293          	andi	t0,a2,-4
    8000200c:	05413423          	sd	s4,72(sp)
    80002010:	00078393          	mv	t2,a5
    80002014:	00068a13          	mv	s4,a3
    80002018:	ffc28793          	addi	a5,t0,-4 # 1ffc <buflen.2978+0x1f7c>
    8000201c:	00181313          	slli	t1,a6,0x1
    80002020:	01a13c23          	sd	s10,24(sp)
    80002024:	01030333          	add	t1,t1,a6
    80002028:	00088d13          	mv	s10,a7
    8000202c:	00f13023          	sd	a5,0(sp)
    80002030:	00361893          	slli	a7,a2,0x3
    80002034:	020a0793          	addi	a5,s4,32
    80002038:	06913023          	sd	s1,96(sp)
    8000203c:	05213c23          	sd	s2,88(sp)
    80002040:	05313823          	sd	s3,80(sp)
    80002044:	05513023          	sd	s5,64(sp)
    80002048:	03613c23          	sd	s6,56(sp)
    8000204c:	03713823          	sd	s7,48(sp)
    80002050:	03813423          	sd	s8,40(sp)
    80002054:	03913023          	sd	s9,32(sp)
    80002058:	01b13823          	sd	s11,16(sp)
    8000205c:	00d888b3          	add	a7,a7,a3
    80002060:	06813423          	sd	s0,104(sp)
    80002064:	00050c93          	mv	s9,a0
    80002068:	00058913          	mv	s2,a1
    8000206c:	00060993          	mv	s3,a2
    80002070:	00070c13          	mv	s8,a4
    80002074:	00080a93          	mv	s5,a6
    80002078:	00371d93          	slli	s11,a4,0x3
    8000207c:	00581e93          	slli	t4,a6,0x5
    80002080:	00381693          	slli	a3,a6,0x3
    80002084:	00481e13          	slli	t3,a6,0x4
    80002088:	00331313          	slli	t1,t1,0x3
    8000208c:	00000b93          	li	s7,0
    80002090:	00000493          	li	s1,0
    80002094:	00000b13          	li	s6,0
    80002098:	00f13423          	sd	a5,8(sp)
    8000209c:	0e090663          	beqz	s2,80002188 <mm_naive+0x188>
    800020a0:	00013783          	ld	a5,0(sp)
    800020a4:	003b9f93          	slli	t6,s7,0x3
    800020a8:	00349413          	slli	s0,s1,0x3
    800020ac:	00f48833          	add	a6,s1,a5
    800020b0:	00813783          	ld	a5,8(sp)
    800020b4:	00381813          	slli	a6,a6,0x3
    800020b8:	01fd0fb3          	add	t6,s10,t6
    800020bc:	008a0433          	add	s0,s4,s0
    800020c0:	00f80833          	add	a6,a6,a5
    800020c4:	00000f13          	li	t5,0
    800020c8:	000fb787          	fld	fa5,0(t6)
    800020cc:	10028663          	beqz	t0,800021d8 <mm_naive+0x1d8>
    800020d0:	f20006d3          	fmv.d.x	fa3,zero
    800020d4:	003f1713          	slli	a4,t5,0x3
    800020d8:	00e38733          	add	a4,t2,a4
    800020dc:	22d68653          	fmv.d	fa2,fa3
    800020e0:	22d68753          	fmv.d	fa4,fa3
    800020e4:	00040793          	mv	a5,s0
    800020e8:	00d70533          	add	a0,a4,a3
    800020ec:	01c705b3          	add	a1,a4,t3
    800020f0:	00670633          	add	a2,a4,t1
    800020f4:	0007b287          	fld	ft5,0(a5)
    800020f8:	00073207          	fld	ft4,0(a4)
    800020fc:	0087b187          	fld	ft3,8(a5)
    80002100:	0107b087          	fld	ft1,16(a5)
    80002104:	0187b507          	fld	fa0,24(a5)
    80002108:	00053107          	fld	ft2,0(a0)
    8000210c:	0005b007          	fld	ft0,0(a1)
    80002110:	00063587          	fld	fa1,0(a2)
    80002114:	02078793          	addi	a5,a5,32
    80002118:	7a42f7c3          	fmadd.d	fa5,ft5,ft4,fa5
    8000211c:	7221f743          	fmadd.d	fa4,ft3,ft2,fa4
    80002120:	6200f643          	fmadd.d	fa2,ft1,ft0,fa2
    80002124:	6ab576c3          	fmadd.d	fa3,fa0,fa1,fa3
    80002128:	01d70733          	add	a4,a4,t4
    8000212c:	faf81ee3          	bne	a6,a5,800020e8 <mm_naive+0xe8>
    80002130:	02c77753          	fadd.d	fa4,fa4,fa2
    80002134:	00028793          	mv	a5,t0
    80002138:	02d77753          	fadd.d	fa4,fa4,fa3
    8000213c:	0337fc63          	bgeu	a5,s3,80002174 <mm_naive+0x174>
    80002140:	02fa8733          	mul	a4,s5,a5
    80002144:	009787b3          	add	a5,a5,s1
    80002148:	00379793          	slli	a5,a5,0x3
    8000214c:	00fa07b3          	add	a5,s4,a5
    80002150:	01e70733          	add	a4,a4,t5
    80002154:	00371713          	slli	a4,a4,0x3
    80002158:	00e38733          	add	a4,t2,a4
    8000215c:	0007b607          	fld	fa2,0(a5)
    80002160:	00073687          	fld	fa3,0(a4)
    80002164:	00878793          	addi	a5,a5,8
    80002168:	00d70733          	add	a4,a4,a3
    8000216c:	7ad677c3          	fmadd.d	fa5,fa2,fa3,fa5
    80002170:	fef896e3          	bne	a7,a5,8000215c <mm_naive+0x15c>
    80002174:	02e7f7d3          	fadd.d	fa5,fa5,fa4
    80002178:	001f0f13          	addi	t5,t5,1
    8000217c:	008f8f93          	addi	t6,t6,8
    80002180:	feffbc27          	fsd	fa5,-8(t6)
    80002184:	f5e912e3          	bne	s2,t5,800020c8 <mm_naive+0xc8>
    80002188:	07013783          	ld	a5,112(sp)
    8000218c:	001b0b13          	addi	s6,s6,1
    80002190:	018484b3          	add	s1,s1,s8
    80002194:	01b888b3          	add	a7,a7,s11
    80002198:	00fb8bb3          	add	s7,s7,a5
    8000219c:	f16c90e3          	bne	s9,s6,8000209c <mm_naive+0x9c>
    800021a0:	06813403          	ld	s0,104(sp)
    800021a4:	06013483          	ld	s1,96(sp)
    800021a8:	05813903          	ld	s2,88(sp)
    800021ac:	05013983          	ld	s3,80(sp)
    800021b0:	04813a03          	ld	s4,72(sp)
    800021b4:	04013a83          	ld	s5,64(sp)
    800021b8:	03813b03          	ld	s6,56(sp)
    800021bc:	03013b83          	ld	s7,48(sp)
    800021c0:	02813c03          	ld	s8,40(sp)
    800021c4:	02013c83          	ld	s9,32(sp)
    800021c8:	01813d03          	ld	s10,24(sp)
    800021cc:	01013d83          	ld	s11,16(sp)
    800021d0:	07010113          	addi	sp,sp,112
    800021d4:	00008067          	ret
    800021d8:	f2000753          	fmv.d.x	fa4,zero
    800021dc:	00000793          	li	a5,0
    800021e0:	f5dff06f          	j	8000213c <mm_naive+0x13c>
    800021e4:	00008067          	ret

00000000800021e8 <mm_cb>:
    800021e8:	d8010113          	addi	sp,sp,-640
    800021ec:	26813823          	sd	s0,624(sp)
    800021f0:	26913423          	sd	s1,616(sp)
    800021f4:	28010413          	addi	s0,sp,640
    800021f8:	26113c23          	sd	ra,632(sp)
    800021fc:	27213023          	sd	s2,608(sp)
    80002200:	25313c23          	sd	s3,600(sp)
    80002204:	25413823          	sd	s4,592(sp)
    80002208:	25513423          	sd	s5,584(sp)
    8000220c:	25613023          	sd	s6,576(sp)
    80002210:	23713c23          	sd	s7,568(sp)
    80002214:	23813823          	sd	s8,560(sp)
    80002218:	23913423          	sd	s9,552(sp)
    8000221c:	23a13023          	sd	s10,544(sp)
    80002220:	21b13c23          	sd	s11,536(sp)
    80002224:	20813427          	fsd	fs0,520(sp)
    80002228:	20913027          	fsd	fs1,512(sp)
    8000222c:	1f213c27          	fsd	fs2,504(sp)
    80002230:	1f313827          	fsd	fs3,496(sp)
    80002234:	1f413427          	fsd	fs4,488(sp)
    80002238:	1f513027          	fsd	fs5,480(sp)
    8000223c:	1d613c27          	fsd	fs6,472(sp)
    80002240:	1d713827          	fsd	fs7,464(sp)
    80002244:	1d813427          	fsd	fs8,456(sp)
    80002248:	1d913027          	fsd	fs9,448(sp)
    8000224c:	1ba13c27          	fsd	fs10,440(sp)
    80002250:	1bb13827          	fsd	fs11,432(sp)
    80002254:	00060f93          	mv	t6,a2
    80002258:	f0c43c23          	sd	a2,-232(s0)
    8000225c:	01900613          	li	a2,25
    80002260:	02c5deb3          	divu	t4,a1,a2
    80002264:	01800313          	li	t1,24
    80002268:	f2e43023          	sd	a4,-224(s0)
    8000226c:	00070f13          	mv	t5,a4
    80002270:	e6a43c23          	sd	a0,-392(s0)
    80002274:	ecb43823          	sd	a1,-304(s0)
    80002278:	e2d43c23          	sd	a3,-456(s0)
    8000227c:	00002637          	lui	a2,0x2
    80002280:	fff60613          	addi	a2,a2,-1 # 1fff <buflen.2978+0x1f7f>
    80002284:	ffffe5b7          	lui	a1,0xffffe
    80002288:	026fd733          	divu	a4,t6,t1
    8000228c:	f1d43023          	sd	t4,-256(s0)
    80002290:	e6f43823          	sd	a5,-400(s0)
    80002294:	001e9793          	slli	a5,t4,0x1
    80002298:	01d787b3          	add	a5,a5,t4
    8000229c:	00379793          	slli	a5,a5,0x3
    800022a0:	eb143823          	sd	a7,-336(s0)
    800022a4:	01d788b3          	add	a7,a5,t4
    800022a8:	f3043423          	sd	a6,-216(s0)
    800022ac:	ef143c23          	sd	a7,-264(s0)
    800022b0:	02655333          	divu	t1,a0,t1
    800022b4:	00171513          	slli	a0,a4,0x1
    800022b8:	00e507b3          	add	a5,a0,a4
    800022bc:	00379493          	slli	s1,a5,0x3
    800022c0:	eae43023          	sd	a4,-352(s0)
    800022c4:	f0943423          	sd	s1,-248(s0)
    800022c8:	00131793          	slli	a5,t1,0x1
    800022cc:	00678333          	add	t1,a5,t1
    800022d0:	00331813          	slli	a6,t1,0x3
    800022d4:	029807b3          	mul	a5,a6,s1
    800022d8:	f1043823          	sd	a6,-240(s0)
    800022dc:	40078793          	addi	a5,a5,1024
    800022e0:	00379793          	slli	a5,a5,0x3
    800022e4:	40f10133          	sub	sp,sp,a5
    800022e8:	01010793          	addi	a5,sp,16
    800022ec:	00c787b3          	add	a5,a5,a2
    800022f0:	00b7f7b3          	and	a5,a5,a1
    800022f4:	02988733          	mul	a4,a7,s1
    800022f8:	e4f43c23          	sd	a5,-424(s0)
    800022fc:	031807b3          	mul	a5,a6,a7
    80002300:	40070713          	addi	a4,a4,1024
    80002304:	00371713          	slli	a4,a4,0x3
    80002308:	40e10133          	sub	sp,sp,a4
    8000230c:	01010713          	addi	a4,sp,16
    80002310:	00c70733          	add	a4,a4,a2
    80002314:	00b77733          	and	a4,a4,a1
    80002318:	e4e43823          	sd	a4,-432(s0)
    8000231c:	40078793          	addi	a5,a5,1024
    80002320:	00379793          	slli	a5,a5,0x3
    80002324:	40f10133          	sub	sp,sp,a5
    80002328:	01010793          	addi	a5,sp,16
    8000232c:	00c78633          	add	a2,a5,a2
    80002330:	00b677b3          	and	a5,a2,a1
    80002334:	ecf43423          	sd	a5,-312(s0)
    80002338:	00081463          	bnez	a6,80002340 <mm_cb+0x158>
    8000233c:	7900106f          	j	80003acc <mm_cb+0x18e4>
    80002340:	001f1813          	slli	a6,t5,0x1
    80002344:	01e80eb3          	add	t4,a6,t5
    80002348:	006e9e93          	slli	t4,t4,0x6
    8000234c:	00068e13          	mv	t3,a3
    80002350:	003f1c13          	slli	s8,t5,0x3
    80002354:	00000893          	li	a7,0
    80002358:	01800293          	li	t0,24
    8000235c:	24000393          	li	t2,576
    80002360:	0a048663          	beqz	s1,8000240c <mm_cb+0x224>
    80002364:	0258d5b3          	divu	a1,a7,t0
    80002368:	ea043783          	ld	a5,-352(s0)
    8000236c:	000e0f13          	mv	t5,t3
    80002370:	00000313          	li	t1,0
    80002374:	02f585b3          	mul	a1,a1,a5
    80002378:	0c0f0f13          	addi	t5,t5,192
    8000237c:	000f0693          	mv	a3,t5
    80002380:	00000f93          	li	t6,0
    80002384:	025357b3          	divu	a5,t1,t0
    80002388:	00b787b3          	add	a5,a5,a1
    8000238c:	00379613          	slli	a2,a5,0x3
    80002390:	00f60633          	add	a2,a2,a5
    80002394:	e5843783          	ld	a5,-424(s0)
    80002398:	00961613          	slli	a2,a2,0x9
    8000239c:	00c78633          	add	a2,a5,a2
    800023a0:	f4068793          	addi	a5,a3,-192
    800023a4:	00060713          	mv	a4,a2
    800023a8:	0007b087          	fld	ft1,0(a5)
    800023ac:	0087b007          	fld	ft0,8(a5)
    800023b0:	0107b507          	fld	fa0,16(a5)
    800023b4:	0187b587          	fld	fa1,24(a5)
    800023b8:	0207b607          	fld	fa2,32(a5)
    800023bc:	0287b687          	fld	fa3,40(a5)
    800023c0:	0307b707          	fld	fa4,48(a5)
    800023c4:	0387b787          	fld	fa5,56(a5)
    800023c8:	00173027          	fsd	ft1,0(a4)
    800023cc:	00073427          	fsd	ft0,8(a4)
    800023d0:	00a73827          	fsd	fa0,16(a4)
    800023d4:	00b73c27          	fsd	fa1,24(a4)
    800023d8:	02c73027          	fsd	fa2,32(a4)
    800023dc:	02d73427          	fsd	fa3,40(a4)
    800023e0:	02e73827          	fsd	fa4,48(a4)
    800023e4:	02f73c27          	fsd	fa5,56(a4)
    800023e8:	04078793          	addi	a5,a5,64
    800023ec:	04070713          	addi	a4,a4,64
    800023f0:	faf69ce3          	bne	a3,a5,800023a8 <mm_cb+0x1c0>
    800023f4:	018f8f93          	addi	t6,t6,24
    800023f8:	0c060613          	addi	a2,a2,192
    800023fc:	018686b3          	add	a3,a3,s8
    80002400:	fa7f90e3          	bne	t6,t2,800023a0 <mm_cb+0x1b8>
    80002404:	01830313          	addi	t1,t1,24
    80002408:	f69368e3          	bltu	t1,s1,80002378 <mm_cb+0x190>
    8000240c:	f1043783          	ld	a5,-240(s0)
    80002410:	01888893          	addi	a7,a7,24
    80002414:	01de0e33          	add	t3,t3,t4
    80002418:	f4f8e4e3          	bltu	a7,a5,80002360 <mm_cb+0x178>
    8000241c:	f0843783          	ld	a5,-248(s0)
    80002420:	00079463          	bnez	a5,80002428 <mm_cb+0x240>
    80002424:	6690106f          	j	8000428c <mm_cb+0x20a4>
    80002428:	f2843783          	ld	a5,-216(s0)
    8000242c:	e7043e83          	ld	t4,-400(s0)
    80002430:	ef843983          	ld	s3,-264(s0)
    80002434:	00179593          	slli	a1,a5,0x1
    80002438:	00f58f33          	add	t5,a1,a5
    8000243c:	00001e37          	lui	t3,0x1
    80002440:	006f1f13          	slli	t5,t5,0x6
    80002444:	00379d13          	slli	s10,a5,0x3
    80002448:	00000893          	li	a7,0
    8000244c:	01800913          	li	s2,24
    80002450:	01900493          	li	s1,25
    80002454:	2c0e0e13          	addi	t3,t3,704 # 12c0 <buflen.2978+0x1240>
    80002458:	25800393          	li	t2,600
    8000245c:	0a098663          	beqz	s3,80002508 <mm_cb+0x320>
    80002460:	0328d833          	divu	a6,a7,s2
    80002464:	f0043783          	ld	a5,-256(s0)
    80002468:	000e8f93          	mv	t6,t4
    8000246c:	00000313          	li	t1,0
    80002470:	02f80833          	mul	a6,a6,a5
    80002474:	e5043783          	ld	a5,-432(s0)
    80002478:	0c0f8693          	addi	a3,t6,192
    8000247c:	00000293          	li	t0,0
    80002480:	02935633          	divu	a2,t1,s1
    80002484:	01060633          	add	a2,a2,a6
    80002488:	03c60633          	mul	a2,a2,t3
    8000248c:	00c78633          	add	a2,a5,a2
    80002490:	f4068793          	addi	a5,a3,-192
    80002494:	00060713          	mv	a4,a2
    80002498:	0007b087          	fld	ft1,0(a5)
    8000249c:	0087b007          	fld	ft0,8(a5)
    800024a0:	0107b507          	fld	fa0,16(a5)
    800024a4:	0187b587          	fld	fa1,24(a5)
    800024a8:	0207b607          	fld	fa2,32(a5)
    800024ac:	0287b687          	fld	fa3,40(a5)
    800024b0:	0307b707          	fld	fa4,48(a5)
    800024b4:	0387b787          	fld	fa5,56(a5)
    800024b8:	00173027          	fsd	ft1,0(a4)
    800024bc:	00073427          	fsd	ft0,8(a4)
    800024c0:	00a73827          	fsd	fa0,16(a4)
    800024c4:	00b73c27          	fsd	fa1,24(a4)
    800024c8:	02c73027          	fsd	fa2,32(a4)
    800024cc:	02d73427          	fsd	fa3,40(a4)
    800024d0:	02e73827          	fsd	fa4,48(a4)
    800024d4:	02f73c27          	fsd	fa5,56(a4)
    800024d8:	04078793          	addi	a5,a5,64
    800024dc:	04070713          	addi	a4,a4,64
    800024e0:	faf69ce3          	bne	a3,a5,80002498 <mm_cb+0x2b0>
    800024e4:	0006b787          	fld	fa5,0(a3)
    800024e8:	01928293          	addi	t0,t0,25
    800024ec:	0c860613          	addi	a2,a2,200
    800024f0:	fef63c27          	fsd	fa5,-8(a2)
    800024f4:	01a686b3          	add	a3,a3,s10
    800024f8:	f8729ce3          	bne	t0,t2,80002490 <mm_cb+0x2a8>
    800024fc:	01930313          	addi	t1,t1,25
    80002500:	0c8f8f93          	addi	t6,t6,200
    80002504:	f73368e3          	bltu	t1,s3,80002474 <mm_cb+0x28c>
    80002508:	f0843783          	ld	a5,-248(s0)
    8000250c:	01888893          	addi	a7,a7,24
    80002510:	01ee8eb3          	add	t4,t4,t5
    80002514:	f4f8e4e3          	bltu	a7,a5,8000245c <mm_cb+0x274>
    80002518:	f2043783          	ld	a5,-224(s0)
    8000251c:	00179813          	slli	a6,a5,0x1
    80002520:	00379c13          	slli	s8,a5,0x3
    80002524:	f1043783          	ld	a5,-240(s0)
    80002528:	00079463          	bnez	a5,80002530 <mm_cb+0x348>
    8000252c:	5ac0106f          	j	80003ad8 <mm_cb+0x18f0>
    80002530:	00043783          	ld	a5,0(s0)
    80002534:	00043703          	ld	a4,0(s0)
    80002538:	eb043f03          	ld	t5,-336(s0)
    8000253c:	00179793          	slli	a5,a5,0x1
    80002540:	e2f43423          	sd	a5,-472(s0)
    80002544:	00e787b3          	add	a5,a5,a4
    80002548:	00679793          	slli	a5,a5,0x6
    8000254c:	ef843983          	ld	s3,-264(s0)
    80002550:	eaf43423          	sd	a5,-344(s0)
    80002554:	00001eb7          	lui	t4,0x1
    80002558:	00371793          	slli	a5,a4,0x3
    8000255c:	eef43823          	sd	a5,-272(s0)
    80002560:	00000313          	li	t1,0
    80002564:	01800913          	li	s2,24
    80002568:	01900493          	li	s1,25
    8000256c:	2c0e8e93          	addi	t4,t4,704 # 12c0 <buflen.2978+0x1240>
    80002570:	25800393          	li	t2,600
    80002574:	0a098863          	beqz	s3,80002624 <mm_cb+0x43c>
    80002578:	032358b3          	divu	a7,t1,s2
    8000257c:	f0043783          	ld	a5,-256(s0)
    80002580:	000f0f93          	mv	t6,t5
    80002584:	00000e13          	li	t3,0
    80002588:	02f888b3          	mul	a7,a7,a5
    8000258c:	ec843783          	ld	a5,-312(s0)
    80002590:	0c0f8693          	addi	a3,t6,192
    80002594:	00000293          	li	t0,0
    80002598:	029e5633          	divu	a2,t3,s1
    8000259c:	01160633          	add	a2,a2,a7
    800025a0:	03d60633          	mul	a2,a2,t4
    800025a4:	00c78633          	add	a2,a5,a2
    800025a8:	f4068793          	addi	a5,a3,-192
    800025ac:	00060713          	mv	a4,a2
    800025b0:	0007b087          	fld	ft1,0(a5)
    800025b4:	0087b007          	fld	ft0,8(a5)
    800025b8:	0107b507          	fld	fa0,16(a5)
    800025bc:	0187b587          	fld	fa1,24(a5)
    800025c0:	0207b607          	fld	fa2,32(a5)
    800025c4:	0287b687          	fld	fa3,40(a5)
    800025c8:	0307b707          	fld	fa4,48(a5)
    800025cc:	0387b787          	fld	fa5,56(a5)
    800025d0:	00173027          	fsd	ft1,0(a4)
    800025d4:	00073427          	fsd	ft0,8(a4)
    800025d8:	00a73827          	fsd	fa0,16(a4)
    800025dc:	00b73c27          	fsd	fa1,24(a4)
    800025e0:	02c73027          	fsd	fa2,32(a4)
    800025e4:	02d73427          	fsd	fa3,40(a4)
    800025e8:	02e73827          	fsd	fa4,48(a4)
    800025ec:	02f73c27          	fsd	fa5,56(a4)
    800025f0:	04078793          	addi	a5,a5,64
    800025f4:	04070713          	addi	a4,a4,64
    800025f8:	faf69ce3          	bne	a3,a5,800025b0 <mm_cb+0x3c8>
    800025fc:	0006b787          	fld	fa5,0(a3)
    80002600:	ef043783          	ld	a5,-272(s0)
    80002604:	01928293          	addi	t0,t0,25
    80002608:	0cf63027          	fsd	fa5,192(a2)
    8000260c:	0c860613          	addi	a2,a2,200
    80002610:	00f686b3          	add	a3,a3,a5
    80002614:	f8729ae3          	bne	t0,t2,800025a8 <mm_cb+0x3c0>
    80002618:	019e0e13          	addi	t3,t3,25
    8000261c:	0c8f8f93          	addi	t6,t6,200
    80002620:	f73e66e3          	bltu	t3,s3,8000258c <mm_cb+0x3a4>
    80002624:	ea843783          	ld	a5,-344(s0)
    80002628:	01830313          	addi	t1,t1,24
    8000262c:	00ff0f33          	add	t5,t5,a5
    80002630:	f1043783          	ld	a5,-240(s0)
    80002634:	f4f360e3          	bltu	t1,a5,80002574 <mm_cb+0x38c>
    80002638:	f2843883          	ld	a7,-216(s0)
    8000263c:	f1843703          	ld	a4,-232(s0)
    80002640:	ea043e03          	ld	t3,-352(s0)
    80002644:	f2043e83          	ld	t4,-224(s0)
    80002648:	01800793          	li	a5,24
    8000264c:	02f77333          	remu	t1,a4,a5
    80002650:	00289693          	slli	a3,a7,0x2
    80002654:	011686b3          	add	a3,a3,a7
    80002658:	01d80833          	add	a6,a6,t4
    8000265c:	002e1793          	slli	a5,t3,0x2
    80002660:	00369b93          	slli	s7,a3,0x3
    80002664:	40fe07b3          	sub	a5,t3,a5
    80002668:	00681693          	slli	a3,a6,0x6
    8000266c:	011585b3          	add	a1,a1,a7
    80002670:	00679793          	slli	a5,a5,0x6
    80002674:	e6d43423          	sd	a3,-408(s0)
    80002678:	e3843683          	ld	a3,-456(s0)
    8000267c:	01c50533          	add	a0,a0,t3
    80002680:	dcf43423          	sd	a5,-568(s0)
    80002684:	00659793          	slli	a5,a1,0x6
    80002688:	00651613          	slli	a2,a0,0x6
    8000268c:	dcf43023          	sd	a5,-576(s0)
    80002690:	00043783          	ld	a5,0(s0)
    80002694:	00c686b3          	add	a3,a3,a2
    80002698:	eed43423          	sd	a3,-280(s0)
    8000269c:	005e9693          	slli	a3,t4,0x5
    800026a0:	00579793          	slli	a5,a5,0x5
    800026a4:	e4d43023          	sd	a3,-448(s0)
    800026a8:	ed043683          	ld	a3,-304(s0)
    800026ac:	dcf43c23          	sd	a5,-552(s0)
    800026b0:	fffff7b7          	lui	a5,0xfffff
    800026b4:	d4078a93          	addi	s5,a5,-704 # ffffffffffffed40 <__global_pointer$+0xffffffff7fff8c20>
    800026b8:	01900793          	li	a5,25
    800026bc:	00500713          	li	a4,5
    800026c0:	00459b13          	slli	s6,a1,0x4
    800026c4:	00359a13          	slli	s4,a1,0x3
    800026c8:	00489393          	slli	t2,a7,0x4
    800026cc:	00589c93          	slli	s9,a7,0x5
    800026d0:	e8043823          	sd	zero,-368(s0)
    800026d4:	02f6f833          	remu	a6,a3,a5
    800026d8:	00600693          	li	a3,6
    800026dc:	00331793          	slli	a5,t1,0x3
    800026e0:	def43c23          	sd	a5,-520(s0)
    800026e4:	e4643423          	sd	t1,-440(s0)
    800026e8:	02d356b3          	divu	a3,t1,a3
    800026ec:	e1043823          	sd	a6,-496(s0)
    800026f0:	02e85633          	divu	a2,a6,a4
    800026f4:	00169793          	slli	a5,a3,0x1
    800026f8:	00d787b3          	add	a5,a5,a3
    800026fc:	00479793          	slli	a5,a5,0x4
    80002700:	dcf43823          	sd	a5,-560(s0)
    80002704:	f0843783          	ld	a5,-248(s0)
    80002708:	031787b3          	mul	a5,a5,a7
    8000270c:	00261593          	slli	a1,a2,0x2
    80002710:	00c58633          	add	a2,a1,a2
    80002714:	f0043583          	ld	a1,-256(s0)
    80002718:	eac43c23          	sd	a2,-328(s0)
    8000271c:	00361613          	slli	a2,a2,0x3
    80002720:	e2c43823          	sd	a2,-464(s0)
    80002724:	0c800613          	li	a2,200
    80002728:	02c58633          	mul	a2,a1,a2
    8000272c:	e7043583          	ld	a1,-400(s0)
    80002730:	01978793          	addi	a5,a5,25
    80002734:	00379793          	slli	a5,a5,0x3
    80002738:	00f587b3          	add	a5,a1,a5
    8000273c:	def43423          	sd	a5,-536(s0)
    80002740:	02e877b3          	remu	a5,a6,a4
    80002744:	000c0713          	mv	a4,s8
    80002748:	000a0c13          	mv	s8,s4
    8000274c:	00070a13          	mv	s4,a4
    80002750:	def43823          	sd	a5,-528(s0)
    80002754:	eb043783          	ld	a5,-336(s0)
    80002758:	00c787b3          	add	a5,a5,a2
    8000275c:	eef43023          	sd	a5,-288(s0)
    80002760:	00c587b3          	add	a5,a1,a2
    80002764:	def43023          	sd	a5,-544(s0)
    80002768:	02db07b3          	mul	a5,s6,a3
    8000276c:	e0f43023          	sd	a5,-512(s0)
    80002770:	000d0793          	mv	a5,s10
    80002774:	000b0d13          	mv	s10,s6
    80002778:	000b8b13          	mv	s6,s7
    8000277c:	000c8b93          	mv	s7,s9
    80002780:	00038c93          	mv	s9,t2
    80002784:	00078393          	mv	t2,a5
    80002788:	ef843783          	ld	a5,-264(s0)
    8000278c:	00079463          	bnez	a5,80002794 <mm_cb+0x5ac>
    80002790:	17c0106f          	j	8000390c <mm_cb+0x1724>
    80002794:	e9043703          	ld	a4,-368(s0)
    80002798:	01800793          	li	a5,24
    8000279c:	ee843683          	ld	a3,-280(s0)
    800027a0:	02f757b3          	divu	a5,a4,a5
    800027a4:	e6843703          	ld	a4,-408(s0)
    800027a8:	ec043023          	sd	zero,-320(s0)
    800027ac:	e9943023          	sd	s9,-384(s0)
    800027b0:	00d70733          	add	a4,a4,a3
    800027b4:	e6e43023          	sd	a4,-416(s0)
    800027b8:	de843703          	ld	a4,-536(s0)
    800027bc:	00038993          	mv	s3,t2
    800027c0:	ece43c23          	sd	a4,-296(s0)
    800027c4:	ea043703          	ld	a4,-352(s0)
    800027c8:	02e78733          	mul	a4,a5,a4
    800027cc:	e2e43023          	sd	a4,-480(s0)
    800027d0:	f0043703          	ld	a4,-256(s0)
    800027d4:	02e787b3          	mul	a5,a5,a4
    800027d8:	e8f43423          	sd	a5,-376(s0)
    800027dc:	f0843783          	ld	a5,-248(s0)
    800027e0:	4e078263          	beqz	a5,80002cc4 <mm_cb+0xadc>
    800027e4:	ec043783          	ld	a5,-320(s0)
    800027e8:	01900713          	li	a4,25
    800027ec:	e8043c23          	sd	zero,-360(s0)
    800027f0:	02e7d7b3          	divu	a5,a5,a4
    800027f4:	e8843703          	ld	a4,-376(s0)
    800027f8:	db743823          	sd	s7,-592(s0)
    800027fc:	db643423          	sd	s6,-600(s0)
    80002800:	db443023          	sd	s4,-608(s0)
    80002804:	d9343c23          	sd	s3,-616(s0)
    80002808:	e0f43c23          	sd	a5,-488(s0)
    8000280c:	00e787b3          	add	a5,a5,a4
    80002810:	00001737          	lui	a4,0x1
    80002814:	2c070693          	addi	a3,a4,704 # 12c0 <buflen.2978+0x1240>
    80002818:	02d787b3          	mul	a5,a5,a3
    8000281c:	ec843683          	ld	a3,-312(s0)
    80002820:	2c070713          	addi	a4,a4,704
    80002824:	00f687b3          	add	a5,a3,a5
    80002828:	00e78733          	add	a4,a5,a4
    8000282c:	0c878793          	addi	a5,a5,200
    80002830:	e0e43423          	sd	a4,-504(s0)
    80002834:	daf43c23          	sd	a5,-584(s0)
    80002838:	e9843703          	ld	a4,-360(s0)
    8000283c:	01800793          	li	a5,24
    80002840:	db843b83          	ld	s7,-584(s0)
    80002844:	02f757b3          	divu	a5,a4,a5
    80002848:	f0043703          	ld	a4,-256(s0)
    8000284c:	00000b13          	li	s6,0
    80002850:	02e78933          	mul	s2,a5,a4
    80002854:	e2043703          	ld	a4,-480(s0)
    80002858:	00f707b3          	add	a5,a4,a5
    8000285c:	00379713          	slli	a4,a5,0x3
    80002860:	00f707b3          	add	a5,a4,a5
    80002864:	e5843703          	ld	a4,-424(s0)
    80002868:	00979793          	slli	a5,a5,0x9
    8000286c:	00f709b3          	add	s3,a4,a5
    80002870:	e1843783          	ld	a5,-488(s0)
    80002874:	00098d93          	mv	s11,s3
    80002878:	00f90933          	add	s2,s2,a5
    8000287c:	000017b7          	lui	a5,0x1
    80002880:	2c078713          	addi	a4,a5,704 # 12c0 <buflen.2978+0x1240>
    80002884:	02e90933          	mul	s2,s2,a4
    80002888:	e5043703          	ld	a4,-432(s0)
    8000288c:	01270933          	add	s2,a4,s2
    80002890:	2c078713          	addi	a4,a5,704
    80002894:	38878793          	addi	a5,a5,904
    80002898:	0c890c93          	addi	s9,s2,200
    8000289c:	00e904b3          	add	s1,s2,a4
    800028a0:	00f90a33          	add	s4,s2,a5
    800028a4:	f38b8793          	addi	a5,s7,-200
    800028a8:	00048693          	mv	a3,s1
    800028ac:	2787b087          	fld	ft1,632(a5)
    800028b0:	0007ba87          	fld	fs5,0(a5)
    800028b4:	0087ba07          	fld	fs4,8(a5)
    800028b8:	0107b987          	fld	fs3,16(a5)
    800028bc:	0187b907          	fld	fs2,24(a5)
    800028c0:	0207b687          	fld	fa3,32(a5)
    800028c4:	0c87b487          	fld	fs1,200(a5)
    800028c8:	0d07b407          	fld	fs0,208(a5)
    800028cc:	0d87bc87          	fld	fs9,216(a5)
    800028d0:	0e07bf07          	fld	ft10,224(a5)
    800028d4:	0e87b707          	fld	fa4,232(a5)
    800028d8:	1907be87          	fld	ft9,400(a5)
    800028dc:	1987be07          	fld	ft8,408(a5)
    800028e0:	1a07b887          	fld	fa7,416(a5)
    800028e4:	1a87b807          	fld	fa6,424(a5)
    800028e8:	1b07b787          	fld	fa5,432(a5)
    800028ec:	2587b107          	fld	ft2,600(a5)
    800028f0:	2607b187          	fld	ft3,608(a5)
    800028f4:	2687b287          	fld	ft5,616(a5)
    800028f8:	2707b207          	fld	ft4,624(a5)
    800028fc:	22108353          	fmv.d	ft6,ft1
    80002900:	01568733          	add	a4,a3,s5
    80002904:	000d8613          	mv	a2,s11
    80002908:	00063507          	fld	fa0,0(a2)
    8000290c:	0c063587          	fld	fa1,192(a2)
    80002910:	18063607          	fld	fa2,384(a2)
    80002914:	24063007          	fld	ft0,576(a2)
    80002918:	00073b87          	fld	fs7,0(a4)
    8000291c:	00873b07          	fld	fs6,8(a4)
    80002920:	01073387          	fld	ft7,16(a4)
    80002924:	01873087          	fld	ft1,24(a4)
    80002928:	02073f87          	fld	ft11,32(a4)
    8000292c:	ab757ac3          	fmadd.d	fs5,fa0,fs7,fs5
    80002930:	a3657a43          	fmadd.d	fs4,fa0,fs6,fs4
    80002934:	9a7579c3          	fmadd.d	fs3,fa0,ft7,fs3
    80002938:	92157943          	fmadd.d	fs2,fa0,ft1,fs2
    8000293c:	6bf576c3          	fmadd.d	fa3,fa0,ft11,fa3
    80002940:	4b75f4c3          	fmadd.d	fs1,fa1,fs7,fs1
    80002944:	4365f443          	fmadd.d	fs0,fa1,fs6,fs0
    80002948:	ca75fcc3          	fmadd.d	fs9,fa1,ft7,fs9
    8000294c:	f215ff43          	fmadd.d	ft10,fa1,ft1,ft10
    80002950:	73f5f743          	fmadd.d	fa4,fa1,ft11,fa4
    80002954:	eb767ec3          	fmadd.d	ft9,fa2,fs7,ft9
    80002958:	e3667e43          	fmadd.d	ft8,fa2,fs6,ft8
    8000295c:	8a7678c3          	fmadd.d	fa7,fa2,ft7,fa7
    80002960:	82167843          	fmadd.d	fa6,fa2,ft1,fa6
    80002964:	7bf677c3          	fmadd.d	fa5,fa2,ft11,fa5
    80002968:	13707143          	fmadd.d	ft2,ft0,fs7,ft2
    8000296c:	1b6071c3          	fmadd.d	ft3,ft0,fs6,ft3
    80002970:	2a7072c3          	fmadd.d	ft5,ft0,ft7,ft5
    80002974:	22107243          	fmadd.d	ft4,ft0,ft1,ft4
    80002978:	33f07043          	fmadd.d	ft0,ft0,ft11,ft6
    8000297c:	00863507          	fld	fa0,8(a2)
    80002980:	0c863587          	fld	fa1,200(a2)
    80002984:	18863607          	fld	fa2,392(a2)
    80002988:	24863087          	fld	ft1,584(a2)
    8000298c:	0c873f87          	fld	ft11,200(a4)
    80002990:	0d073d07          	fld	fs10,208(a4)
    80002994:	0d873b07          	fld	fs6,216(a4)
    80002998:	0e073387          	fld	ft7,224(a4)
    8000299c:	0e873307          	fld	ft6,232(a4)
    800029a0:	13f0f143          	fmadd.d	ft2,ft1,ft11,ft2
    800029a4:	1ba0f1c3          	fmadd.d	ft3,ft1,fs10,ft3
    800029a8:	6a6576c3          	fmadd.d	fa3,fa0,ft6,fa3
    800029ac:	7265f743          	fmadd.d	fa4,fa1,ft6,fa4
    800029b0:	7a6677c3          	fmadd.d	fa5,fa2,ft6,fa5
    800029b4:	abf57ac3          	fmadd.d	fs5,fa0,ft11,fs5
    800029b8:	a3a57a43          	fmadd.d	fs4,fa0,fs10,fs4
    800029bc:	9b6579c3          	fmadd.d	fs3,fa0,fs6,fs3
    800029c0:	92757943          	fmadd.d	fs2,fa0,ft7,fs2
    800029c4:	4bf5f4c3          	fmadd.d	fs1,fa1,ft11,fs1
    800029c8:	43a5f443          	fmadd.d	fs0,fa1,fs10,fs0
    800029cc:	cb65fcc3          	fmadd.d	fs9,fa1,fs6,fs9
    800029d0:	f275ff43          	fmadd.d	ft10,fa1,ft7,ft10
    800029d4:	ebf67ec3          	fmadd.d	ft9,fa2,ft11,ft9
    800029d8:	e3a67e43          	fmadd.d	ft8,fa2,fs10,ft8
    800029dc:	8b6678c3          	fmadd.d	fa7,fa2,fs6,fa7
    800029e0:	82767843          	fmadd.d	fa6,fa2,ft7,fa6
    800029e4:	2b60f2c3          	fmadd.d	ft5,ft1,fs6,ft5
    800029e8:	2270f243          	fmadd.d	ft4,ft1,ft7,ft4
    800029ec:	0260f043          	fmadd.d	ft0,ft1,ft6,ft0
    800029f0:	01063507          	fld	fa0,16(a2)
    800029f4:	25063087          	fld	ft1,592(a2)
    800029f8:	0d063587          	fld	fa1,208(a2)
    800029fc:	19063607          	fld	fa2,400(a2)
    80002a00:	1a873387          	fld	ft7,424(a4)
    80002a04:	19073f87          	fld	ft11,400(a4)
    80002a08:	19873d07          	fld	fs10,408(a4)
    80002a0c:	1a073b07          	fld	fs6,416(a4)
    80002a10:	1b073307          	fld	ft6,432(a4)
    80002a14:	2270f243          	fmadd.d	ft4,ft1,ft7,ft4
    80002a18:	abf57ac3          	fmadd.d	fs5,fa0,ft11,fs5
    80002a1c:	a3a57a43          	fmadd.d	fs4,fa0,fs10,fs4
    80002a20:	92757943          	fmadd.d	fs2,fa0,ft7,fs2
    80002a24:	4bf5f4c3          	fmadd.d	fs1,fa1,ft11,fs1
    80002a28:	43a5f443          	fmadd.d	fs0,fa1,fs10,fs0
    80002a2c:	f275ff43          	fmadd.d	ft10,fa1,ft7,ft10
    80002a30:	ebf67ec3          	fmadd.d	ft9,fa2,ft11,ft9
    80002a34:	e3a67e43          	fmadd.d	ft8,fa2,fs10,ft8
    80002a38:	82767843          	fmadd.d	fa6,fa2,ft7,fa6
    80002a3c:	13f0ffc3          	fmadd.d	ft11,ft1,ft11,ft2
    80002a40:	1ba0fd43          	fmadd.d	fs10,ft1,fs10,ft3
    80002a44:	2b60f2c3          	fmadd.d	ft5,ft1,fs6,ft5
    80002a48:	0260f043          	fmadd.d	ft0,ft1,ft6,ft0
    80002a4c:	9b6579c3          	fmadd.d	fs3,fa0,fs6,fs3
    80002a50:	cb65fcc3          	fmadd.d	fs9,fa1,fs6,fs9
    80002a54:	6a657543          	fmadd.d	fa0,fa0,ft6,fa3
    80002a58:	7265f5c3          	fmadd.d	fa1,fa1,ft6,fa4
    80002a5c:	8b6678c3          	fmadd.d	fa7,fa2,fs6,fa7
    80002a60:	7a667643          	fmadd.d	fa2,fa2,ft6,fa5
    80002a64:	01863687          	fld	fa3,24(a2)
    80002a68:	25873107          	fld	ft2,600(a4)
    80002a6c:	26073187          	fld	ft3,608(a4)
    80002a70:	26873c07          	fld	fs8,616(a4)
    80002a74:	27073b87          	fld	fs7,624(a4)
    80002a78:	27873307          	fld	ft6,632(a4)
    80002a7c:	0d863707          	fld	fa4,216(a2)
    80002a80:	19863787          	fld	fa5,408(a2)
    80002a84:	25863087          	fld	ft1,600(a2)
    80002a88:	aa26fac3          	fmadd.d	fs5,fa3,ft2,fs5
    80002a8c:	a236fa43          	fmadd.d	fs4,fa3,ft3,fs4
    80002a90:	9b86f9c3          	fmadd.d	fs3,fa3,fs8,fs3
    80002a94:	9376f943          	fmadd.d	fs2,fa3,fs7,fs2
    80002a98:	5266f543          	fmadd.d	fa0,fa3,ft6,fa0
    80002a9c:	4a2774c3          	fmadd.d	fs1,fa4,ft2,fs1
    80002aa0:	42377443          	fmadd.d	fs0,fa4,ft3,fs0
    80002aa4:	cb877cc3          	fmadd.d	fs9,fa4,fs8,fs9
    80002aa8:	f3777f43          	fmadd.d	ft10,fa4,fs7,ft10
    80002aac:	5a6775c3          	fmadd.d	fa1,fa4,ft6,fa1
    80002ab0:	ea27fec3          	fmadd.d	ft9,fa5,ft2,ft9
    80002ab4:	e237fe43          	fmadd.d	ft8,fa5,ft3,ft8
    80002ab8:	8b87f8c3          	fmadd.d	fa7,fa5,fs8,fa7
    80002abc:	8377f843          	fmadd.d	fa6,fa5,fs7,fa6
    80002ac0:	6267f643          	fmadd.d	fa2,fa5,ft6,fa2
    80002ac4:	fa20ffc3          	fmadd.d	ft11,ft1,ft2,ft11
    80002ac8:	d230fd43          	fmadd.d	fs10,ft1,ft3,fs10
    80002acc:	2b80fc43          	fmadd.d	fs8,ft1,fs8,ft5
    80002ad0:	2370fbc3          	fmadd.d	fs7,ft1,fs7,ft4
    80002ad4:	0260f043          	fmadd.d	ft0,ft1,ft6,ft0
    80002ad8:	02063687          	fld	fa3,32(a2)
    80002adc:	0e063707          	fld	fa4,224(a2)
    80002ae0:	1a063787          	fld	fa5,416(a2)
    80002ae4:	26063307          	fld	ft6,608(a2)
    80002ae8:	32073107          	fld	ft2,800(a4)
    80002aec:	32873187          	fld	ft3,808(a4)
    80002af0:	33073287          	fld	ft5,816(a4)
    80002af4:	33873207          	fld	ft4,824(a4)
    80002af8:	34073387          	fld	ft7,832(a4)
    80002afc:	aa26fac3          	fmadd.d	fs5,fa3,ft2,fs5
    80002b00:	a236fa43          	fmadd.d	fs4,fa3,ft3,fs4
    80002b04:	9a56f9c3          	fmadd.d	fs3,fa3,ft5,fs3
    80002b08:	9246f943          	fmadd.d	fs2,fa3,ft4,fs2
    80002b0c:	5276f543          	fmadd.d	fa0,fa3,ft7,fa0
    80002b10:	4a2774c3          	fmadd.d	fs1,fa4,ft2,fs1
    80002b14:	42377443          	fmadd.d	fs0,fa4,ft3,fs0
    80002b18:	ca577cc3          	fmadd.d	fs9,fa4,ft5,fs9
    80002b1c:	f2477f43          	fmadd.d	ft10,fa4,ft4,ft10
    80002b20:	5a7775c3          	fmadd.d	fa1,fa4,ft7,fa1
    80002b24:	ea27fec3          	fmadd.d	ft9,fa5,ft2,ft9
    80002b28:	e237fe43          	fmadd.d	ft8,fa5,ft3,ft8
    80002b2c:	8a57f8c3          	fmadd.d	fa7,fa5,ft5,fa7
    80002b30:	8247f843          	fmadd.d	fa6,fa5,ft4,fa6
    80002b34:	6277f643          	fmadd.d	fa2,fa5,ft7,fa2
    80002b38:	fa237fc3          	fmadd.d	ft11,ft6,ft2,ft11
    80002b3c:	d2337d43          	fmadd.d	fs10,ft6,ft3,fs10
    80002b40:	c2537c43          	fmadd.d	fs8,ft6,ft5,fs8
    80002b44:	ba437bc3          	fmadd.d	fs7,ft6,ft4,fs7
    80002b48:	02737043          	fmadd.d	ft0,ft6,ft7,ft0
    80002b4c:	02863687          	fld	fa3,40(a2)
    80002b50:	0e863707          	fld	fa4,232(a2)
    80002b54:	1a863787          	fld	fa5,424(a2)
    80002b58:	26863307          	fld	ft6,616(a2)
    80002b5c:	3e873107          	fld	ft2,1000(a4)
    80002b60:	3f073187          	fld	ft3,1008(a4)
    80002b64:	3f873287          	fld	ft5,1016(a4)
    80002b68:	40073207          	fld	ft4,1024(a4)
    80002b6c:	40873387          	fld	ft7,1032(a4)
    80002b70:	4b070713          	addi	a4,a4,1200
    80002b74:	aa26fac3          	fmadd.d	fs5,fa3,ft2,fs5
    80002b78:	a236fa43          	fmadd.d	fs4,fa3,ft3,fs4
    80002b7c:	9a56f9c3          	fmadd.d	fs3,fa3,ft5,fs3
    80002b80:	9246f943          	fmadd.d	fs2,fa3,ft4,fs2
    80002b84:	4a2774c3          	fmadd.d	fs1,fa4,ft2,fs1
    80002b88:	42377443          	fmadd.d	fs0,fa4,ft3,fs0
    80002b8c:	ca577cc3          	fmadd.d	fs9,fa4,ft5,fs9
    80002b90:	f2477f43          	fmadd.d	ft10,fa4,ft4,ft10
    80002b94:	ea27fec3          	fmadd.d	ft9,fa5,ft2,ft9
    80002b98:	e237fe43          	fmadd.d	ft8,fa5,ft3,ft8
    80002b9c:	8a57f8c3          	fmadd.d	fa7,fa5,ft5,fa7
    80002ba0:	8247f843          	fmadd.d	fa6,fa5,ft4,fa6
    80002ba4:	fa237143          	fmadd.d	ft2,ft6,ft2,ft11
    80002ba8:	d23371c3          	fmadd.d	ft3,ft6,ft3,fs10
    80002bac:	c25372c3          	fmadd.d	ft5,ft6,ft5,fs8
    80002bb0:	ba437243          	fmadd.d	ft4,ft6,ft4,fs7
    80002bb4:	5276f6c3          	fmadd.d	fa3,fa3,ft7,fa0
    80002bb8:	5a777743          	fmadd.d	fa4,fa4,ft7,fa1
    80002bbc:	6277f7c3          	fmadd.d	fa5,fa5,ft7,fa2
    80002bc0:	02737343          	fmadd.d	ft6,ft6,ft7,ft0
    80002bc4:	03060613          	addi	a2,a2,48
    80002bc8:	d4d710e3          	bne	a4,a3,80002908 <mm_cb+0x720>
    80002bcc:	0157b027          	fsd	fs5,0(a5)
    80002bd0:	0147b427          	fsd	fs4,8(a5)
    80002bd4:	0137b827          	fsd	fs3,16(a5)
    80002bd8:	0127bc27          	fsd	fs2,24(a5)
    80002bdc:	02d7b027          	fsd	fa3,32(a5)
    80002be0:	0c97b427          	fsd	fs1,200(a5)
    80002be4:	0c87b827          	fsd	fs0,208(a5)
    80002be8:	0d97bc27          	fsd	fs9,216(a5)
    80002bec:	0fe7b027          	fsd	ft10,224(a5)
    80002bf0:	0ee7b427          	fsd	fa4,232(a5)
    80002bf4:	19d7b827          	fsd	ft9,400(a5)
    80002bf8:	19c7bc27          	fsd	ft8,408(a5)
    80002bfc:	1b17b027          	fsd	fa7,416(a5)
    80002c00:	1b07b427          	fsd	fa6,424(a5)
    80002c04:	1af7b827          	fsd	fa5,432(a5)
    80002c08:	2427bc27          	fsd	ft2,600(a5)
    80002c0c:	2637b027          	fsd	ft3,608(a5)
    80002c10:	2657b427          	fsd	ft5,616(a5)
    80002c14:	2647b827          	fsd	ft4,624(a5)
    80002c18:	2667bc27          	fsd	ft6,632(a5)
    80002c1c:	02870693          	addi	a3,a4,40
    80002c20:	02878793          	addi	a5,a5,40
    80002c24:	c8da14e3          	bne	s4,a3,800028ac <mm_cb+0x6c4>
    80002c28:	01900793          	li	a5,25
    80002c2c:	000b8893          	mv	a7,s7
    80002c30:	000d8693          	mv	a3,s11
    80002c34:	00f13023          	sd	a5,0(sp)
    80002c38:	01900813          	li	a6,25
    80002c3c:	000c8793          	mv	a5,s9
    80002c40:	01800713          	li	a4,24
    80002c44:	01800613          	li	a2,24
    80002c48:	00000593          	li	a1,0
    80002c4c:	00400513          	li	a0,4
    80002c50:	bb0ff0ef          	jal	ra,80002000 <mm_naive>
    80002c54:	064b0b13          	addi	s6,s6,100
    80002c58:	25800793          	li	a5,600
    80002c5c:	300d8d93          	addi	s11,s11,768
    80002c60:	320b8b93          	addi	s7,s7,800
    80002c64:	c4fb10e3          	bne	s6,a5,800028a4 <mm_cb+0x6bc>
    80002c68:	e9843303          	ld	t1,-360(s0)
    80002c6c:	e0843883          	ld	a7,-504(s0)
    80002c70:	000016b7          	lui	a3,0x1
    80002c74:	01900793          	li	a5,25
    80002c78:	20068693          	addi	a3,a3,512 # 1200 <buflen.2978+0x1180>
    80002c7c:	01830313          	addi	t1,t1,24
    80002c80:	00f13023          	sd	a5,0(sp)
    80002c84:	01900813          	li	a6,25
    80002c88:	00090793          	mv	a5,s2
    80002c8c:	01800713          	li	a4,24
    80002c90:	00d986b3          	add	a3,s3,a3
    80002c94:	01800613          	li	a2,24
    80002c98:	01900593          	li	a1,25
    80002c9c:	00000513          	li	a0,0
    80002ca0:	00030493          	mv	s1,t1
    80002ca4:	e8643c23          	sd	t1,-360(s0)
    80002ca8:	b58ff0ef          	jal	ra,80002000 <mm_naive>
    80002cac:	f0843783          	ld	a5,-248(s0)
    80002cb0:	b8f4e4e3          	bltu	s1,a5,80002838 <mm_cb+0x650>
    80002cb4:	db043b83          	ld	s7,-592(s0)
    80002cb8:	da843b03          	ld	s6,-600(s0)
    80002cbc:	da043a03          	ld	s4,-608(s0)
    80002cc0:	d9843983          	ld	s3,-616(s0)
    80002cc4:	f1843783          	ld	a5,-232(s0)
    80002cc8:	f0843703          	ld	a4,-248(s0)
    80002ccc:	68f76263          	bltu	a4,a5,80003350 <mm_cb+0x1168>
    80002cd0:	ed843703          	ld	a4,-296(s0)
    80002cd4:	ec043783          	ld	a5,-320(s0)
    80002cd8:	0c870713          	addi	a4,a4,200
    80002cdc:	ece43c23          	sd	a4,-296(s0)
    80002ce0:	ef843703          	ld	a4,-264(s0)
    80002ce4:	01978793          	addi	a5,a5,25
    80002ce8:	ecf43023          	sd	a5,-320(s0)
    80002cec:	aee7e8e3          	bltu	a5,a4,800027dc <mm_cb+0x5f4>
    80002cf0:	ed043783          	ld	a5,-304(s0)
    80002cf4:	ef843703          	ld	a4,-264(s0)
    80002cf8:	e8043c83          	ld	s9,-384(s0)
    80002cfc:	00098393          	mv	t2,s3
    80002d00:	42f774e3          	bgeu	a4,a5,80003928 <mm_cb+0x1740>
    80002d04:	f1843783          	ld	a5,-232(s0)
    80002d08:	420780e3          	beqz	a5,80003928 <mm_cb+0x1740>
    80002d0c:	ee043703          	ld	a4,-288(s0)
    80002d10:	ea843783          	ld	a5,-344(s0)
    80002d14:	e8043c23          	sd	zero,-360(s0)
    80002d18:	00038493          	mv	s1,t2
    80002d1c:	00e787b3          	add	a5,a5,a4
    80002d20:	ecf43023          	sd	a5,-320(s0)
    80002d24:	ee843703          	ld	a4,-280(s0)
    80002d28:	dc843783          	ld	a5,-568(s0)
    80002d2c:	00e787b3          	add	a5,a5,a4
    80002d30:	e8f43423          	sd	a5,-376(s0)
    80002d34:	de043783          	ld	a5,-544(s0)
    80002d38:	eef43423          	sd	a5,-280(s0)
    80002d3c:	f1843783          	ld	a5,-232(s0)
    80002d40:	e9843703          	ld	a4,-360(s0)
    80002d44:	40e783b3          	sub	t2,a5,a4
    80002d48:	01800793          	li	a5,24
    80002d4c:	0077f463          	bgeu	a5,t2,80002d54 <mm_cb+0xb6c>
    80002d50:	01800393          	li	t2,24
    80002d54:	00600793          	li	a5,6
    80002d58:	02f3d7b3          	divu	a5,t2,a5
    80002d5c:	ee843683          	ld	a3,-280(s0)
    80002d60:	e3043703          	ld	a4,-464(s0)
    80002d64:	00339993          	slli	s3,t2,0x3
    80002d68:	00d70733          	add	a4,a4,a3
    80002d6c:	ee043683          	ld	a3,-288(s0)
    80002d70:	e0e43c23          	sd	a4,-488(s0)
    80002d74:	e8843703          	ld	a4,-376(s0)
    80002d78:	ecd43c23          	sd	a3,-296(s0)
    80002d7c:	00600693          	li	a3,6
    80002d80:	013709b3          	add	s3,a4,s3
    80002d84:	00070d93          	mv	s11,a4
    80002d88:	e8d43023          	sd	a3,-384(s0)
    80002d8c:	00179913          	slli	s2,a5,0x1
    80002d90:	00f90933          	add	s2,s2,a5
    80002d94:	02fd07b3          	mul	a5,s10,a5
    80002d98:	00491913          	slli	s2,s2,0x4
    80002d9c:	01270933          	add	s2,a4,s2
    80002da0:	e2f43023          	sd	a5,-480(s0)
    80002da4:	eb843783          	ld	a5,-328(s0)
    80002da8:	4c078863          	beqz	a5,80003278 <mm_cb+0x1090>
    80002dac:	ef043783          	ld	a5,-272(s0)
    80002db0:	ed843883          	ld	a7,-296(s0)
    80002db4:	ee843f83          	ld	t6,-280(s0)
    80002db8:	e2043083          	ld	ra,-480(s0)
    80002dbc:	01178833          	add	a6,a5,a7
    80002dc0:	01078533          	add	a0,a5,a6
    80002dc4:	00a78333          	add	t1,a5,a0
    80002dc8:	00000293          	li	t0,0
    80002dcc:	0008be87          	fld	ft9,0(a7)
    80002dd0:	0088bf87          	fld	ft11,8(a7)
    80002dd4:	0108bf07          	fld	ft10,16(a7)
    80002dd8:	0188be07          	fld	ft8,24(a7)
    80002ddc:	0208b507          	fld	fa0,32(a7)
    80002de0:	00083887          	fld	fa7,0(a6)
    80002de4:	00883807          	fld	fa6,8(a6)
    80002de8:	01083387          	fld	ft7,16(a6)
    80002dec:	01883307          	fld	ft6,24(a6)
    80002df0:	02083607          	fld	fa2,32(a6)
    80002df4:	00053107          	fld	ft2,0(a0)
    80002df8:	00853287          	fld	ft5,8(a0)
    80002dfc:	01053207          	fld	ft4,16(a0)
    80002e00:	01853187          	fld	ft3,24(a0)
    80002e04:	02053707          	fld	fa4,32(a0)
    80002e08:	00033587          	fld	fa1,0(t1)
    80002e0c:	00833087          	fld	ft1,8(t1)
    80002e10:	01033007          	fld	ft0,16(t1)
    80002e14:	01833687          	fld	fa3,24(t1)
    80002e18:	02033787          	fld	fa5,32(t1)
    80002e1c:	000f8793          	mv	a5,t6
    80002e20:	352df863          	bgeu	s11,s2,80003170 <mm_cb+0xf88>
    80002e24:	22210dd3          	fmv.d	fs11,ft2
    80002e28:	221084d3          	fmv.d	fs1,ft1
    80002e2c:	22e70153          	fmv.d	ft2,fa4
    80002e30:	223180d3          	fmv.d	ft1,ft3
    80002e34:	22000953          	fmv.d	fs2,ft0
    80002e38:	22f781d3          	fmv.d	ft3,fa5
    80002e3c:	01ba0633          	add	a2,s4,s11
    80002e40:	23ff8753          	fmv.d	fa4,ft11
    80002e44:	22b58453          	fmv.d	fs0,fa1
    80002e48:	23de8053          	fmv.d	ft0,ft9
    80002e4c:	22d689d3          	fmv.d	fs3,fa3
    80002e50:	23ef07d3          	fmv.d	fa5,ft10
    80002e54:	00ca06b3          	add	a3,s4,a2
    80002e58:	00da05b3          	add	a1,s4,a3
    80002e5c:	000d8713          	mv	a4,s11
    80002e60:	00073c87          	fld	fs9,0(a4)
    80002e64:	00063b87          	fld	fs7,0(a2)
    80002e68:	0006bd07          	fld	fs10,0(a3)
    80002e6c:	0005bb07          	fld	fs6,0(a1) # ffffffffffffe000 <__global_pointer$+0xffffffff7fff7ee0>
    80002e70:	0007bc07          	fld	fs8,0(a5)
    80002e74:	0087ba87          	fld	fs5,8(a5)
    80002e78:	0107ba07          	fld	fs4,16(a5)
    80002e7c:	0187b587          	fld	fa1,24(a5)
    80002e80:	0207b687          	fld	fa3,32(a5)
    80002e84:	db8d7dc3          	fmadd.d	fs11,fs10,fs8,fs11
    80002e88:	038cf043          	fmadd.d	ft0,fs9,fs8,ft0
    80002e8c:	735cf743          	fmadd.d	fa4,fs9,fs5,fa4
    80002e90:	7b4cf7c3          	fmadd.d	fa5,fs9,fs4,fa5
    80002e94:	e2bcfe43          	fmadd.d	ft8,fs9,fa1,ft8
    80002e98:	52dcf543          	fmadd.d	fa0,fs9,fa3,fa0
    80002e9c:	8b8bf8c3          	fmadd.d	fa7,fs7,fs8,fa7
    80002ea0:	32bbfcc3          	fmadd.d	fs9,fs7,fa1,ft6
    80002ea4:	835bf843          	fmadd.d	fa6,fs7,fs5,fa6
    80002ea8:	2b5d7343          	fmadd.d	ft6,fs10,fs5,ft5
    80002eac:	3b4bf3c3          	fmadd.d	ft7,fs7,fs4,ft7
    80002eb0:	62dbf643          	fmadd.d	fa2,fs7,fa3,fa2
    80002eb4:	0abd70c3          	fmadd.d	ft1,fs10,fa1,ft1
    80002eb8:	234d7bc3          	fmadd.d	fs7,fs10,fs4,ft4
    80002ebc:	12dd7143          	fmadd.d	ft2,fs10,fa3,ft2
    80002ec0:	438b7443          	fmadd.d	fs0,fs6,fs8,fs0
    80002ec4:	4b5b74c3          	fmadd.d	fs1,fs6,fs5,fs1
    80002ec8:	934b7943          	fmadd.d	fs2,fs6,fs4,fs2
    80002ecc:	9abb79c3          	fmadd.d	fs3,fs6,fa1,fs3
    80002ed0:	1adb7b43          	fmadd.d	fs6,fs6,fa3,ft3
    80002ed4:	00978e33          	add	t3,a5,s1
    80002ed8:	00873187          	fld	ft3,8(a4)
    80002edc:	00863207          	fld	ft4,8(a2)
    80002ee0:	0086b587          	fld	fa1,8(a3)
    80002ee4:	0085b687          	fld	fa3,8(a1)
    80002ee8:	000e3a87          	fld	fs5,0(t3)
    80002eec:	008e3a07          	fld	fs4,8(t3)
    80002ef0:	010e3f87          	fld	ft11,16(t3)
    80002ef4:	018e3f07          	fld	ft10,24(t3)
    80002ef8:	020e3e87          	fld	ft9,32(t3)
    80002efc:	db55f2c3          	fmadd.d	ft5,fa1,fs5,fs11
    80002f00:	cbe27cc3          	fmadd.d	fs9,ft4,ft10,fs9
    80002f04:	3345f343          	fmadd.d	ft6,fa1,fs4,ft6
    80002f08:	13d5f143          	fmadd.d	ft2,fa1,ft9,ft2
    80002f0c:	0351f043          	fmadd.d	ft0,ft3,fs5,ft0
    80002f10:	7341f743          	fmadd.d	fa4,ft3,fs4,fa4
    80002f14:	7bf1f7c3          	fmadd.d	fa5,ft3,ft11,fa5
    80002f18:	e3e1fe43          	fmadd.d	ft8,ft3,ft10,ft8
    80002f1c:	53d1f543          	fmadd.d	fa0,ft3,ft9,fa0
    80002f20:	8b5278c3          	fmadd.d	fa7,ft4,fs5,fa7
    80002f24:	83427843          	fmadd.d	fa6,ft4,fs4,fa6
    80002f28:	3bf273c3          	fmadd.d	ft7,ft4,ft11,ft7
    80002f2c:	63d27643          	fmadd.d	fa2,ft4,ft9,fa2
    80002f30:	bbf5fbc3          	fmadd.d	fs7,fa1,ft11,fs7
    80002f34:	0be5f0c3          	fmadd.d	ft1,fa1,ft10,ft1
    80002f38:	4356f443          	fmadd.d	fs0,fa3,fs5,fs0
    80002f3c:	4b46f4c3          	fmadd.d	fs1,fa3,fs4,fs1
    80002f40:	93f6f943          	fmadd.d	fs2,fa3,ft11,fs2
    80002f44:	9be6f9c3          	fmadd.d	fs3,fa3,ft10,fs3
    80002f48:	b3d6f6c3          	fmadd.d	fa3,fa3,ft9,fs6
    80002f4c:	00fc8e33          	add	t3,s9,a5
    80002f50:	01073207          	fld	ft4,16(a4)
    80002f54:	01063b07          	fld	fs6,16(a2)
    80002f58:	0106b587          	fld	fa1,16(a3)
    80002f5c:	0105be87          	fld	ft9,16(a1)
    80002f60:	000e3c07          	fld	fs8,0(t3)
    80002f64:	008e3a07          	fld	fs4,8(t3)
    80002f68:	010e3f87          	fld	ft11,16(t3)
    80002f6c:	018e3f07          	fld	ft10,24(t3)
    80002f70:	020e3a87          	fld	fs5,32(t3)
    80002f74:	3bfb73c3          	fmadd.d	ft7,fs6,ft11,ft7
    80002f78:	03827043          	fmadd.d	ft0,ft4,fs8,ft0
    80002f7c:	1355f1c3          	fmadd.d	ft3,fa1,fs5,ft2
    80002f80:	6b5ef6c3          	fmadd.d	fa3,ft9,fs5,fa3
    80002f84:	73427743          	fmadd.d	fa4,ft4,fs4,fa4
    80002f88:	7bf277c3          	fmadd.d	fa5,ft4,ft11,fa5
    80002f8c:	e3e27e43          	fmadd.d	ft8,ft4,ft10,ft8
    80002f90:	53527543          	fmadd.d	fa0,ft4,fs5,fa0
    80002f94:	8b8b78c3          	fmadd.d	fa7,fs6,fs8,fa7
    80002f98:	cbeb7243          	fmadd.d	ft4,fs6,ft10,fs9
    80002f9c:	834b7843          	fmadd.d	fa6,fs6,fs4,fa6
    80002fa0:	635b7643          	fmadd.d	fa2,fs6,fs5,fa2
    80002fa4:	2b85f2c3          	fmadd.d	ft5,fa1,fs8,ft5
    80002fa8:	3345fb43          	fmadd.d	fs6,fa1,fs4,ft6
    80002fac:	bbf5fbc3          	fmadd.d	fs7,fa1,ft11,fs7
    80002fb0:	0be5f0c3          	fmadd.d	ft1,fa1,ft10,ft1
    80002fb4:	438ef443          	fmadd.d	fs0,ft9,fs8,fs0
    80002fb8:	4b4ef4c3          	fmadd.d	fs1,ft9,fs4,fs1
    80002fbc:	93fef943          	fmadd.d	fs2,ft9,ft11,fs2
    80002fc0:	9beef9c3          	fmadd.d	fs3,ft9,ft10,fs3
    80002fc4:	01878e33          	add	t3,a5,s8
    80002fc8:	01873587          	fld	fa1,24(a4)
    80002fcc:	000e3a87          	fld	fs5,0(t3)
    80002fd0:	008e3a07          	fld	fs4,8(t3)
    80002fd4:	010e3f87          	fld	ft11,16(t3)
    80002fd8:	018e3f07          	fld	ft10,24(t3)
    80002fdc:	020e3e87          	fld	ft9,32(t3)
    80002fe0:	01863c87          	fld	fs9,24(a2)
    80002fe4:	0185bc07          	fld	fs8,24(a1)
    80002fe8:	0186b107          	fld	ft2,24(a3)
    80002fec:	53d5f543          	fmadd.d	fa0,fa1,ft9,fa0
    80002ff0:	3bfcf343          	fmadd.d	ft6,fs9,ft11,ft7
    80002ff4:	435c7443          	fmadd.d	fs0,fs8,fs5,fs0
    80002ff8:	4b4c74c3          	fmadd.d	fs1,fs8,fs4,fs1
    80002ffc:	93fc7943          	fmadd.d	fs2,fs8,ft11,fs2
    80003000:	9bec79c3          	fmadd.d	fs3,fs8,ft10,fs3
    80003004:	0355f043          	fmadd.d	ft0,fa1,fs5,ft0
    80003008:	7345f743          	fmadd.d	fa4,fa1,fs4,fa4
    8000300c:	7bf5f7c3          	fmadd.d	fa5,fa1,ft11,fa5
    80003010:	e3e5fe43          	fmadd.d	ft8,fa1,ft10,ft8
    80003014:	8b5cf8c3          	fmadd.d	fa7,fs9,fs5,fa7
    80003018:	834cf843          	fmadd.d	fa6,fs9,fs4,fa6
    8000301c:	23ecf243          	fmadd.d	ft4,fs9,ft10,ft4
    80003020:	63dcf643          	fmadd.d	fa2,fs9,ft9,fa2
    80003024:	2b5172c3          	fmadd.d	ft5,ft2,fs5,ft5
    80003028:	b3417b43          	fmadd.d	fs6,ft2,fs4,fs6
    8000302c:	bbf17bc3          	fmadd.d	fs7,ft2,ft11,fs7
    80003030:	0be170c3          	fmadd.d	ft1,ft2,ft10,ft1
    80003034:	1bd17143          	fmadd.d	ft2,ft2,ft9,ft3
    80003038:	6bdc7ec3          	fmadd.d	ft9,fs8,ft9,fa3
    8000303c:	00fb8e33          	add	t3,s7,a5
    80003040:	0206b687          	fld	fa3,32(a3)
    80003044:	0205bd87          	fld	fs11,32(a1)
    80003048:	02073587          	fld	fa1,32(a4)
    8000304c:	02063f07          	fld	ft10,32(a2)
    80003050:	000e3c07          	fld	fs8,0(t3)
    80003054:	008e3f87          	fld	ft11,8(t3)
    80003058:	010e3d07          	fld	fs10,16(t3)
    8000305c:	018e3c87          	fld	fs9,24(t3)
    80003060:	020e3187          	fld	ft3,32(t3)
    80003064:	2b86f2c3          	fmadd.d	ft5,fa3,fs8,ft5
    80003068:	0385f043          	fmadd.d	ft0,fa1,fs8,ft0
    8000306c:	73f5f743          	fmadd.d	fa4,fa1,ft11,fa4
    80003070:	7ba5f7c3          	fmadd.d	fa5,fa1,fs10,fa5
    80003074:	e395fe43          	fmadd.d	ft8,fa1,fs9,ft8
    80003078:	33af7343          	fmadd.d	ft6,ft10,fs10,ft6
    8000307c:	5235f5c3          	fmadd.d	fa1,fa1,ft3,fa0
    80003080:	239f7243          	fmadd.d	ft4,ft10,fs9,ft4
    80003084:	b3f6fb43          	fmadd.d	fs6,fa3,ft11,fs6
    80003088:	bba6fbc3          	fmadd.d	fs7,fa3,fs10,fs7
    8000308c:	0b96f0c3          	fmadd.d	ft1,fa3,fs9,ft1
    80003090:	1236f143          	fmadd.d	ft2,fa3,ft3,ft2
    80003094:	93adfd43          	fmadd.d	fs10,fs11,fs10,fs2
    80003098:	9b9dfcc3          	fmadd.d	fs9,fs11,fs9,fs3
    8000309c:	8b8f78c3          	fmadd.d	fa7,ft10,fs8,fa7
    800030a0:	83ff7843          	fmadd.d	fa6,ft10,ft11,fa6
    800030a4:	438dfc43          	fmadd.d	fs8,fs11,fs8,fs0
    800030a8:	4bfdffc3          	fmadd.d	ft11,fs11,ft11,fs1
    800030ac:	623f7643          	fmadd.d	fa2,ft10,ft3,fa2
    800030b0:	ea3df1c3          	fmadd.d	ft3,fs11,ft3,ft9
    800030b4:	01678e33          	add	t3,a5,s6
    800030b8:	02863d87          	fld	fs11,40(a2)
    800030bc:	02873507          	fld	fa0,40(a4)
    800030c0:	0286b687          	fld	fa3,40(a3)
    800030c4:	0285ba87          	fld	fs5,40(a1)
    800030c8:	000e3407          	fld	fs0,0(t3)
    800030cc:	008e3487          	fld	fs1,8(t3)
    800030d0:	010e3907          	fld	fs2,16(t3)
    800030d4:	018e3987          	fld	fs3,24(t3)
    800030d8:	020e3a07          	fld	fs4,32(t3)
    800030dc:	03070713          	addi	a4,a4,48
    800030e0:	332df3c3          	fmadd.d	ft7,fs11,fs2,ft6
    800030e4:	02857043          	fmadd.d	ft0,fa0,fs0,ft0
    800030e8:	233df343          	fmadd.d	ft6,fs11,fs3,ft4
    800030ec:	72957743          	fmadd.d	fa4,fa0,fs1,fa4
    800030f0:	7b2577c3          	fmadd.d	fa5,fa0,fs2,fa5
    800030f4:	e3357e43          	fmadd.d	ft8,fa0,fs3,ft8
    800030f8:	8a8df8c3          	fmadd.d	fa7,fs11,fs0,fa7
    800030fc:	829df843          	fmadd.d	fa6,fs11,fs1,fa6
    80003100:	634df643          	fmadd.d	fa2,fs11,fs4,fa2
    80003104:	bb26f243          	fmadd.d	ft4,fa3,fs2,fs7
    80003108:	2a86fdc3          	fmadd.d	fs11,fa3,fs0,ft5
    8000310c:	0b36f0c3          	fmadd.d	ft1,fa3,fs3,ft1
    80003110:	b296f2c3          	fmadd.d	ft5,fa3,fs1,fs6
    80003114:	5b457543          	fmadd.d	fa0,fa0,fs4,fa1
    80003118:	1346f143          	fmadd.d	ft2,fa3,fs4,ft2
    8000311c:	c28af443          	fmadd.d	fs0,fs5,fs0,fs8
    80003120:	fa9af4c3          	fmadd.d	fs1,fs5,fs1,ft11
    80003124:	d32af943          	fmadd.d	fs2,fs5,fs2,fs10
    80003128:	cb3af9c3          	fmadd.d	fs3,fs5,fs3,fs9
    8000312c:	1b4af1c3          	fmadd.d	ft3,fs5,fs4,ft3
    80003130:	01a787b3          	add	a5,a5,s10
    80003134:	03060613          	addi	a2,a2,48
    80003138:	03068693          	addi	a3,a3,48
    8000313c:	03058593          	addi	a1,a1,48
    80003140:	d32760e3          	bltu	a4,s2,80002e60 <mm_cb+0xc78>
    80003144:	22000ed3          	fmv.d	ft9,ft0
    80003148:	22e70fd3          	fmv.d	ft11,fa4
    8000314c:	22f78f53          	fmv.d	ft10,fa5
    80003150:	22210753          	fmv.d	fa4,ft2
    80003154:	223187d3          	fmv.d	fa5,ft3
    80003158:	23bd8153          	fmv.d	ft2,fs11
    8000315c:	221081d3          	fmv.d	ft3,ft1
    80003160:	228405d3          	fmv.d	fa1,fs0
    80003164:	23290053          	fmv.d	ft0,fs2
    80003168:	233986d3          	fmv.d	fa3,fs3
    8000316c:	229480d3          	fmv.d	ft1,fs1
    80003170:	01f087b3          	add	a5,ra,t6
    80003174:	09397a63          	bgeu	s2,s3,80003208 <mm_cb+0x1020>
    80003178:	00090713          	mv	a4,s2
    8000317c:	014705b3          	add	a1,a4,s4
    80003180:	01458633          	add	a2,a1,s4
    80003184:	014606b3          	add	a3,a2,s4
    80003188:	00073987          	fld	fs3,0(a4)
    8000318c:	0007bc07          	fld	fs8,0(a5)
    80003190:	0087bb87          	fld	fs7,8(a5)
    80003194:	0107bb07          	fld	fs6,16(a5)
    80003198:	0187ba87          	fld	fs5,24(a5)
    8000319c:	0207ba07          	fld	fs4,32(a5)
    800031a0:	0005b907          	fld	fs2,0(a1)
    800031a4:	00063487          	fld	fs1,0(a2)
    800031a8:	0006b407          	fld	fs0,0(a3)
    800031ac:	00870713          	addi	a4,a4,8
    800031b0:	eb89fec3          	fmadd.d	ft9,fs3,fs8,ft9
    800031b4:	fb79ffc3          	fmadd.d	ft11,fs3,fs7,ft11
    800031b8:	f369ff43          	fmadd.d	ft10,fs3,fs6,ft10
    800031bc:	e359fe43          	fmadd.d	ft8,fs3,fs5,ft8
    800031c0:	5349f543          	fmadd.d	fa0,fs3,fs4,fa0
    800031c4:	8b8978c3          	fmadd.d	fa7,fs2,fs8,fa7
    800031c8:	83797843          	fmadd.d	fa6,fs2,fs7,fa6
    800031cc:	3b6973c3          	fmadd.d	ft7,fs2,fs6,ft7
    800031d0:	33597343          	fmadd.d	ft6,fs2,fs5,ft6
    800031d4:	63497643          	fmadd.d	fa2,fs2,fs4,fa2
    800031d8:	1384f143          	fmadd.d	ft2,fs1,fs8,ft2
    800031dc:	2b74f2c3          	fmadd.d	ft5,fs1,fs7,ft5
    800031e0:	2364f243          	fmadd.d	ft4,fs1,fs6,ft4
    800031e4:	1b54f1c3          	fmadd.d	ft3,fs1,fs5,ft3
    800031e8:	7344f743          	fmadd.d	fa4,fs1,fs4,fa4
    800031ec:	5b8475c3          	fmadd.d	fa1,fs0,fs8,fa1
    800031f0:	0b7470c3          	fmadd.d	ft1,fs0,fs7,ft1
    800031f4:	03647043          	fmadd.d	ft0,fs0,fs6,ft0
    800031f8:	6b5476c3          	fmadd.d	fa3,fs0,fs5,fa3
    800031fc:	7b4477c3          	fmadd.d	fa5,fs0,fs4,fa5
    80003200:	009787b3          	add	a5,a5,s1
    80003204:	f7376ce3          	bltu	a4,s3,8000317c <mm_cb+0xf94>
    80003208:	01d8b027          	fsd	ft9,0(a7)
    8000320c:	01f8b427          	fsd	ft11,8(a7)
    80003210:	01e8b827          	fsd	ft10,16(a7)
    80003214:	01c8bc27          	fsd	ft8,24(a7)
    80003218:	02a8b027          	fsd	fa0,32(a7)
    8000321c:	01183027          	fsd	fa7,0(a6)
    80003220:	01083427          	fsd	fa6,8(a6)
    80003224:	00783827          	fsd	ft7,16(a6)
    80003228:	00683c27          	fsd	ft6,24(a6)
    8000322c:	02c83027          	fsd	fa2,32(a6)
    80003230:	eb843783          	ld	a5,-328(s0)
    80003234:	00253027          	fsd	ft2,0(a0)
    80003238:	00553427          	fsd	ft5,8(a0)
    8000323c:	00453827          	fsd	ft4,16(a0)
    80003240:	00353c27          	fsd	ft3,24(a0)
    80003244:	02e53027          	fsd	fa4,32(a0)
    80003248:	00b33027          	fsd	fa1,0(t1)
    8000324c:	00133427          	fsd	ft1,8(t1)
    80003250:	00033827          	fsd	ft0,16(t1)
    80003254:	00d33c27          	fsd	fa3,24(t1)
    80003258:	02f33027          	fsd	fa5,32(t1)
    8000325c:	00528293          	addi	t0,t0,5
    80003260:	02888893          	addi	a7,a7,40
    80003264:	02880813          	addi	a6,a6,40
    80003268:	02850513          	addi	a0,a0,40
    8000326c:	02830313          	addi	t1,t1,40
    80003270:	028f8f93          	addi	t6,t6,40
    80003274:	b4f2ece3          	bltu	t0,a5,80002dcc <mm_cb+0xbe4>
    80003278:	e3043703          	ld	a4,-464(s0)
    8000327c:	ed843783          	ld	a5,-296(s0)
    80003280:	e8043303          	ld	t1,-384(s0)
    80003284:	f2843803          	ld	a6,-216(s0)
    80003288:	00f708b3          	add	a7,a4,a5
    8000328c:	00043703          	ld	a4,0(s0)
    80003290:	e1843783          	ld	a5,-488(s0)
    80003294:	df043583          	ld	a1,-528(s0)
    80003298:	00e13023          	sd	a4,0(sp)
    8000329c:	f2043703          	ld	a4,-224(s0)
    800032a0:	000d8693          	mv	a3,s11
    800032a4:	00038613          	mv	a2,t2
    800032a8:	fff30313          	addi	t1,t1,-1
    800032ac:	00400513          	li	a0,4
    800032b0:	e0743423          	sd	t2,-504(s0)
    800032b4:	e8643023          	sd	t1,-384(s0)
    800032b8:	d49fe0ef          	jal	ra,80002000 <mm_naive>
    800032bc:	e4043783          	ld	a5,-448(s0)
    800032c0:	dd843703          	ld	a4,-552(s0)
    800032c4:	e0843383          	ld	t2,-504(s0)
    800032c8:	00fd8db3          	add	s11,s11,a5
    800032cc:	00f90933          	add	s2,s2,a5
    800032d0:	00f989b3          	add	s3,s3,a5
    800032d4:	ed843783          	ld	a5,-296(s0)
    800032d8:	00e78733          	add	a4,a5,a4
    800032dc:	e8043783          	ld	a5,-384(s0)
    800032e0:	ece43c23          	sd	a4,-296(s0)
    800032e4:	ac0790e3          	bnez	a5,80002da4 <mm_cb+0xbbc>
    800032e8:	e6843703          	ld	a4,-408(s0)
    800032ec:	e8843903          	ld	s2,-376(s0)
    800032f0:	ee843d83          	ld	s11,-280(s0)
    800032f4:	e9843303          	ld	t1,-360(s0)
    800032f8:	012706b3          	add	a3,a4,s2
    800032fc:	00043703          	ld	a4,0(s0)
    80003300:	ec043883          	ld	a7,-320(s0)
    80003304:	f2843803          	ld	a6,-216(s0)
    80003308:	00e13023          	sd	a4,0(sp)
    8000330c:	e1043583          	ld	a1,-496(s0)
    80003310:	f2043703          	ld	a4,-224(s0)
    80003314:	000d8793          	mv	a5,s11
    80003318:	01830993          	addi	s3,t1,24
    8000331c:	00038613          	mv	a2,t2
    80003320:	00000513          	li	a0,0
    80003324:	e9343c23          	sd	s3,-360(s0)
    80003328:	cd9fe0ef          	jal	ra,80002000 <mm_naive>
    8000332c:	0c090793          	addi	a5,s2,192
    80003330:	e8f43423          	sd	a5,-376(s0)
    80003334:	dc043783          	ld	a5,-576(s0)
    80003338:	00fd87b3          	add	a5,s11,a5
    8000333c:	eef43423          	sd	a5,-280(s0)
    80003340:	f1843783          	ld	a5,-232(s0)
    80003344:	9ef9ece3          	bltu	s3,a5,80002d3c <mm_cb+0xb54>
    80003348:	00048393          	mv	t2,s1
    8000334c:	5ec0006f          	j	80003938 <mm_cb+0x1750>
    80003350:	ec043783          	ld	a5,-320(s0)
    80003354:	01900713          	li	a4,25
    80003358:	ee843f83          	ld	t6,-280(s0)
    8000335c:	02e7deb3          	divu	t4,a5,a4
    80003360:	ed843783          	ld	a5,-296(s0)
    80003364:	00000c93          	li	s9,0
    80003368:	f3878d93          	addi	s11,a5,-200
    8000336c:	dd043783          	ld	a5,-560(s0)
    80003370:	01f784b3          	add	s1,a5,t6
    80003374:	df843783          	ld	a5,-520(s0)
    80003378:	01f78933          	add	s2,a5,t6
    8000337c:	e8843783          	ld	a5,-376(s0)
    80003380:	00fe8eb3          	add	t4,t4,a5
    80003384:	000017b7          	lui	a5,0x1
    80003388:	2c078793          	addi	a5,a5,704 # 12c0 <buflen.2978+0x1240>
    8000338c:	02fe8eb3          	mul	t4,t4,a5
    80003390:	ec843783          	ld	a5,-312(s0)
    80003394:	01d78eb3          	add	t4,a5,t4
    80003398:	0c8e8f13          	addi	t5,t4,200
    8000339c:	e9d43c23          	sd	t4,-360(s0)
    800033a0:	000c8e93          	mv	t4,s9
    800033a4:	e8043c83          	ld	s9,-384(s0)
    800033a8:	000f8793          	mv	a5,t6
    800033ac:	000d8f93          	mv	t6,s11
    800033b0:	00078d93          	mv	s11,a5
    800033b4:	e0043083          	ld	ra,-512(s0)
    800033b8:	ed843383          	ld	t2,-296(s0)
    800033bc:	f38f0513          	addi	a0,t5,-200
    800033c0:	000f8e13          	mv	t3,t6
    800033c4:	00053e87          	fld	ft9,0(a0)
    800033c8:	00853f87          	fld	ft11,8(a0)
    800033cc:	01053f07          	fld	ft10,16(a0)
    800033d0:	01853e07          	fld	ft8,24(a0)
    800033d4:	02053507          	fld	fa0,32(a0)
    800033d8:	0c853887          	fld	fa7,200(a0)
    800033dc:	0d053807          	fld	fa6,208(a0)
    800033e0:	0d853387          	fld	ft7,216(a0)
    800033e4:	0e053307          	fld	ft6,224(a0)
    800033e8:	0e853607          	fld	fa2,232(a0)
    800033ec:	19053107          	fld	ft2,400(a0)
    800033f0:	19853287          	fld	ft5,408(a0)
    800033f4:	1a053207          	fld	ft4,416(a0)
    800033f8:	1a853187          	fld	ft3,424(a0)
    800033fc:	1b053707          	fld	fa4,432(a0)
    80003400:	25853587          	fld	fa1,600(a0)
    80003404:	26053087          	fld	ft1,608(a0)
    80003408:	26853007          	fld	ft0,616(a0)
    8000340c:	27053687          	fld	fa3,624(a0)
    80003410:	27853787          	fld	fa5,632(a0)
    80003414:	000e0793          	mv	a5,t3
    80003418:	369df063          	bgeu	s11,s1,80003778 <mm_cb+0x1590>
    8000341c:	22b58453          	fmv.d	fs0,fa1
    80003420:	221084d3          	fmv.d	fs1,ft1
    80003424:	225285d3          	fmv.d	fa1,ft5
    80003428:	223180d3          	fmv.d	ft1,ft3
    8000342c:	222102d3          	fmv.d	ft5,ft2
    80003430:	22000953          	fmv.d	fs2,ft0
    80003434:	22e70153          	fmv.d	ft2,fa4
    80003438:	22f781d3          	fmv.d	ft3,fa5
    8000343c:	01ba0633          	add	a2,s4,s11
    80003440:	23080dd3          	fmv.d	fs11,fa6
    80003444:	23ff8753          	fmv.d	fa4,ft11
    80003448:	23de8053          	fmv.d	ft0,ft9
    8000344c:	22d689d3          	fmv.d	fs3,fa3
    80003450:	23ef07d3          	fmv.d	fa5,ft10
    80003454:	00ca06b3          	add	a3,s4,a2
    80003458:	00da05b3          	add	a1,s4,a3
    8000345c:	000d8713          	mv	a4,s11
    80003460:	00073807          	fld	fa6,0(a4)
    80003464:	00063b87          	fld	fs7,0(a2)
    80003468:	0006be87          	fld	ft9,0(a3)
    8000346c:	0005bb07          	fld	fs6,0(a1)
    80003470:	0007bd07          	fld	fs10,0(a5)
    80003474:	0087bc87          	fld	fs9,8(a5)
    80003478:	0107ba87          	fld	fs5,16(a5)
    8000347c:	0187ba07          	fld	fs4,24(a5)
    80003480:	0207b687          	fld	fa3,32(a5)
    80003484:	03a87043          	fmadd.d	ft0,fa6,fs10,ft0
    80003488:	334bfc43          	fmadd.d	fs8,fs7,fs4,ft6
    8000348c:	73987743          	fmadd.d	fa4,fa6,fs9,fa4
    80003490:	5b9ef343          	fmadd.d	ft6,ft9,fs9,fa1
    80003494:	7b5877c3          	fmadd.d	fa5,fa6,fs5,fa5
    80003498:	e3487e43          	fmadd.d	ft8,fa6,fs4,ft8
    8000349c:	52d87543          	fmadd.d	fa0,fa6,fa3,fa0
    800034a0:	8babf8c3          	fmadd.d	fa7,fs7,fs10,fa7
    800034a4:	db9bf843          	fmadd.d	fa6,fs7,fs9,fs11
    800034a8:	3b5bf3c3          	fmadd.d	ft7,fs7,fs5,ft7
    800034ac:	62dbf643          	fmadd.d	fa2,fs7,fa3,fa2
    800034b0:	2baef2c3          	fmadd.d	ft5,ft9,fs10,ft5
    800034b4:	235efbc3          	fmadd.d	fs7,ft9,fs5,ft4
    800034b8:	0b4ef0c3          	fmadd.d	ft1,ft9,fs4,ft1
    800034bc:	12def143          	fmadd.d	ft2,ft9,fa3,ft2
    800034c0:	43ab7443          	fmadd.d	fs0,fs6,fs10,fs0
    800034c4:	4b9b74c3          	fmadd.d	fs1,fs6,fs9,fs1
    800034c8:	935b7943          	fmadd.d	fs2,fs6,fs5,fs2
    800034cc:	9b4b79c3          	fmadd.d	fs3,fs6,fs4,fs3
    800034d0:	1adb7b43          	fmadd.d	fs6,fs6,fa3,ft3
    800034d4:	01378833          	add	a6,a5,s3
    800034d8:	00873187          	fld	ft3,8(a4)
    800034dc:	00863207          	fld	ft4,8(a2)
    800034e0:	0086b587          	fld	fa1,8(a3)
    800034e4:	0085b687          	fld	fa3,8(a1)
    800034e8:	00083a87          	fld	fs5,0(a6)
    800034ec:	00883a07          	fld	fs4,8(a6)
    800034f0:	01083f87          	fld	ft11,16(a6)
    800034f4:	01883f07          	fld	ft10,24(a6)
    800034f8:	02083e87          	fld	ft9,32(a6)
    800034fc:	3345f343          	fmadd.d	ft6,fa1,fs4,ft6
    80003500:	0351f043          	fmadd.d	ft0,ft3,fs5,ft0
    80003504:	13d5f143          	fmadd.d	ft2,fa1,ft9,ft2
    80003508:	7341f743          	fmadd.d	fa4,ft3,fs4,fa4
    8000350c:	7bf1f7c3          	fmadd.d	fa5,ft3,ft11,fa5
    80003510:	e3e1fe43          	fmadd.d	ft8,ft3,ft10,ft8
    80003514:	53d1f543          	fmadd.d	fa0,ft3,ft9,fa0
    80003518:	8b5278c3          	fmadd.d	fa7,ft4,fs5,fa7
    8000351c:	c3e271c3          	fmadd.d	ft3,ft4,ft10,fs8
    80003520:	83427843          	fmadd.d	fa6,ft4,fs4,fa6
    80003524:	3bf273c3          	fmadd.d	ft7,ft4,ft11,ft7
    80003528:	63d27643          	fmadd.d	fa2,ft4,ft9,fa2
    8000352c:	2b55f2c3          	fmadd.d	ft5,fa1,fs5,ft5
    80003530:	bbf5fbc3          	fmadd.d	fs7,fa1,ft11,fs7
    80003534:	0be5f0c3          	fmadd.d	ft1,fa1,ft10,ft1
    80003538:	4356f443          	fmadd.d	fs0,fa3,fs5,fs0
    8000353c:	4b46f4c3          	fmadd.d	fs1,fa3,fs4,fs1
    80003540:	93f6f943          	fmadd.d	fs2,fa3,ft11,fs2
    80003544:	9be6f9c3          	fmadd.d	fs3,fa3,ft10,fs3
    80003548:	b3d6f6c3          	fmadd.d	fa3,fa3,ft9,fs6
    8000354c:	00fc8833          	add	a6,s9,a5
    80003550:	01073207          	fld	ft4,16(a4)
    80003554:	01063b07          	fld	fs6,16(a2)
    80003558:	0106b587          	fld	fa1,16(a3)
    8000355c:	0105be87          	fld	ft9,16(a1)
    80003560:	00083c07          	fld	fs8,0(a6)
    80003564:	00883a07          	fld	fs4,8(a6)
    80003568:	01083f87          	fld	ft11,16(a6)
    8000356c:	01883f07          	fld	ft10,24(a6)
    80003570:	02083a87          	fld	fs5,32(a6)
    80003574:	3bfb73c3          	fmadd.d	ft7,fs6,ft11,ft7
    80003578:	03827043          	fmadd.d	ft0,ft4,fs8,ft0
    8000357c:	6b5ef6c3          	fmadd.d	fa3,ft9,fs5,fa3
    80003580:	73427743          	fmadd.d	fa4,ft4,fs4,fa4
    80003584:	7bf277c3          	fmadd.d	fa5,ft4,ft11,fa5
    80003588:	e3e27e43          	fmadd.d	ft8,ft4,ft10,ft8
    8000358c:	53527543          	fmadd.d	fa0,ft4,fs5,fa0
    80003590:	8b8b78c3          	fmadd.d	fa7,fs6,fs8,fa7
    80003594:	1beb7243          	fmadd.d	ft4,fs6,ft10,ft3
    80003598:	834b7843          	fmadd.d	fa6,fs6,fs4,fa6
    8000359c:	1355f1c3          	fmadd.d	ft3,fa1,fs5,ft2
    800035a0:	635b7643          	fmadd.d	fa2,fs6,fs5,fa2
    800035a4:	2b85f2c3          	fmadd.d	ft5,fa1,fs8,ft5
    800035a8:	3345fb43          	fmadd.d	fs6,fa1,fs4,ft6
    800035ac:	bbf5fbc3          	fmadd.d	fs7,fa1,ft11,fs7
    800035b0:	0be5f0c3          	fmadd.d	ft1,fa1,ft10,ft1
    800035b4:	438ef443          	fmadd.d	fs0,ft9,fs8,fs0
    800035b8:	4b4ef4c3          	fmadd.d	fs1,ft9,fs4,fs1
    800035bc:	93fef943          	fmadd.d	fs2,ft9,ft11,fs2
    800035c0:	9beef9c3          	fmadd.d	fs3,ft9,ft10,fs3
    800035c4:	01878833          	add	a6,a5,s8
    800035c8:	01873587          	fld	fa1,24(a4)
    800035cc:	00083a87          	fld	fs5,0(a6)
    800035d0:	00883a07          	fld	fs4,8(a6)
    800035d4:	01083f87          	fld	ft11,16(a6)
    800035d8:	01883f07          	fld	ft10,24(a6)
    800035dc:	02083e87          	fld	ft9,32(a6)
    800035e0:	01863c87          	fld	fs9,24(a2)
    800035e4:	0185bc07          	fld	fs8,24(a1)
    800035e8:	0186b107          	fld	ft2,24(a3)
    800035ec:	53d5f543          	fmadd.d	fa0,fa1,ft9,fa0
    800035f0:	834cf843          	fmadd.d	fa6,fs9,fs4,fa6
    800035f4:	3bfcf343          	fmadd.d	ft6,fs9,ft11,ft7
    800035f8:	435c7443          	fmadd.d	fs0,fs8,fs5,fs0
    800035fc:	4b4c74c3          	fmadd.d	fs1,fs8,fs4,fs1
    80003600:	93fc7943          	fmadd.d	fs2,fs8,ft11,fs2
    80003604:	9bec79c3          	fmadd.d	fs3,fs8,ft10,fs3
    80003608:	0355f043          	fmadd.d	ft0,fa1,fs5,ft0
    8000360c:	7345f743          	fmadd.d	fa4,fa1,fs4,fa4
    80003610:	7bf5f7c3          	fmadd.d	fa5,fa1,ft11,fa5
    80003614:	e3e5fe43          	fmadd.d	ft8,fa1,ft10,ft8
    80003618:	8b5cf8c3          	fmadd.d	fa7,fs9,fs5,fa7
    8000361c:	23ecf243          	fmadd.d	ft4,fs9,ft10,ft4
    80003620:	63dcf643          	fmadd.d	fa2,fs9,ft9,fa2
    80003624:	2b5172c3          	fmadd.d	ft5,ft2,fs5,ft5
    80003628:	b3417b43          	fmadd.d	fs6,ft2,fs4,fs6
    8000362c:	bbf17bc3          	fmadd.d	fs7,ft2,ft11,fs7
    80003630:	0be170c3          	fmadd.d	ft1,ft2,ft10,ft1
    80003634:	1bd17143          	fmadd.d	ft2,ft2,ft9,ft3
    80003638:	6bdc7ec3          	fmadd.d	ft9,fs8,ft9,fa3
    8000363c:	00fb8833          	add	a6,s7,a5
    80003640:	0206b687          	fld	fa3,32(a3)
    80003644:	0205bd87          	fld	fs11,32(a1)
    80003648:	02073587          	fld	fa1,32(a4)
    8000364c:	02063f07          	fld	ft10,32(a2)
    80003650:	00083c07          	fld	fs8,0(a6)
    80003654:	00883f87          	fld	ft11,8(a6)
    80003658:	01083d07          	fld	fs10,16(a6)
    8000365c:	01883c87          	fld	fs9,24(a6)
    80003660:	02083187          	fld	ft3,32(a6)
    80003664:	83ff73c3          	fmadd.d	ft7,ft10,ft11,fa6
    80003668:	0385f043          	fmadd.d	ft0,fa1,fs8,ft0
    8000366c:	73f5f743          	fmadd.d	fa4,fa1,ft11,fa4
    80003670:	7ba5f7c3          	fmadd.d	fa5,fa1,fs10,fa5
    80003674:	e395fe43          	fmadd.d	ft8,fa1,fs9,ft8
    80003678:	33af7343          	fmadd.d	ft6,ft10,fs10,ft6
    8000367c:	5235f5c3          	fmadd.d	fa1,fa1,ft3,fa0
    80003680:	239f7243          	fmadd.d	ft4,ft10,fs9,ft4
    80003684:	2b86f2c3          	fmadd.d	ft5,fa3,fs8,ft5
    80003688:	b3f6fb43          	fmadd.d	fs6,fa3,ft11,fs6
    8000368c:	bba6fbc3          	fmadd.d	fs7,fa3,fs10,fs7
    80003690:	0b96f0c3          	fmadd.d	ft1,fa3,fs9,ft1
    80003694:	1236f143          	fmadd.d	ft2,fa3,ft3,ft2
    80003698:	4bfdffc3          	fmadd.d	ft11,fs11,ft11,fs1
    8000369c:	93adfd43          	fmadd.d	fs10,fs11,fs10,fs2
    800036a0:	9b9dfcc3          	fmadd.d	fs9,fs11,fs9,fs3
    800036a4:	8b8f78c3          	fmadd.d	fa7,ft10,fs8,fa7
    800036a8:	623f7643          	fmadd.d	fa2,ft10,ft3,fa2
    800036ac:	438dfc43          	fmadd.d	fs8,fs11,fs8,fs0
    800036b0:	ea3df1c3          	fmadd.d	ft3,fs11,ft3,ft9
    800036b4:	01678833          	add	a6,a5,s6
    800036b8:	02873507          	fld	fa0,40(a4)
    800036bc:	02863807          	fld	fa6,40(a2)
    800036c0:	0286b687          	fld	fa3,40(a3)
    800036c4:	0285ba87          	fld	fs5,40(a1)
    800036c8:	00083407          	fld	fs0,0(a6)
    800036cc:	00883487          	fld	fs1,8(a6)
    800036d0:	01083907          	fld	fs2,16(a6)
    800036d4:	01883987          	fld	fs3,24(a6)
    800036d8:	02083a07          	fld	fs4,32(a6)
    800036dc:	03070713          	addi	a4,a4,48
    800036e0:	02857043          	fmadd.d	ft0,fa0,fs0,ft0
    800036e4:	72957743          	fmadd.d	fa4,fa0,fs1,fa4
    800036e8:	7b2577c3          	fmadd.d	fa5,fa0,fs2,fa5
    800036ec:	e3357e43          	fmadd.d	ft8,fa0,fs3,ft8
    800036f0:	3a987dc3          	fmadd.d	fs11,fa6,fs1,ft7
    800036f4:	5b457543          	fmadd.d	fa0,fa0,fs4,fa1
    800036f8:	332873c3          	fmadd.d	ft7,fa6,fs2,ft6
    800036fc:	8a8878c3          	fmadd.d	fa7,fa6,fs0,fa7
    80003700:	23387343          	fmadd.d	ft6,fa6,fs3,ft4
    80003704:	2a86f2c3          	fmadd.d	ft5,fa3,fs0,ft5
    80003708:	b296f5c3          	fmadd.d	fa1,fa3,fs1,fs6
    8000370c:	bb26f243          	fmadd.d	ft4,fa3,fs2,fs7
    80003710:	0b36f0c3          	fmadd.d	ft1,fa3,fs3,ft1
    80003714:	63487643          	fmadd.d	fa2,fa6,fs4,fa2
    80003718:	1346f143          	fmadd.d	ft2,fa3,fs4,ft2
    8000371c:	c28af443          	fmadd.d	fs0,fs5,fs0,fs8
    80003720:	fa9af4c3          	fmadd.d	fs1,fs5,fs1,ft11
    80003724:	d32af943          	fmadd.d	fs2,fs5,fs2,fs10
    80003728:	cb3af9c3          	fmadd.d	fs3,fs5,fs3,fs9
    8000372c:	1b4af1c3          	fmadd.d	ft3,fs5,fs4,ft3
    80003730:	01a787b3          	add	a5,a5,s10
    80003734:	03060613          	addi	a2,a2,48
    80003738:	03068693          	addi	a3,a3,48
    8000373c:	03058593          	addi	a1,a1,48
    80003740:	d29760e3          	bltu	a4,s1,80003460 <mm_cb+0x1278>
    80003744:	22e70fd3          	fmv.d	ft11,fa4
    80003748:	22f78f53          	fmv.d	ft10,fa5
    8000374c:	22000ed3          	fmv.d	ft9,ft0
    80003750:	22210753          	fmv.d	fa4,ft2
    80003754:	223187d3          	fmv.d	fa5,ft3
    80003758:	22528153          	fmv.d	ft2,ft5
    8000375c:	221081d3          	fmv.d	ft3,ft1
    80003760:	22b582d3          	fmv.d	ft5,fa1
    80003764:	23bd8853          	fmv.d	fa6,fs11
    80003768:	228405d3          	fmv.d	fa1,fs0
    8000376c:	23290053          	fmv.d	ft0,fs2
    80003770:	233986d3          	fmv.d	fa3,fs3
    80003774:	229480d3          	fmv.d	ft1,fs1
    80003778:	01c087b3          	add	a5,ra,t3
    8000377c:	0924fa63          	bgeu	s1,s2,80003810 <mm_cb+0x1628>
    80003780:	00048713          	mv	a4,s1
    80003784:	014705b3          	add	a1,a4,s4
    80003788:	01458633          	add	a2,a1,s4
    8000378c:	014606b3          	add	a3,a2,s4
    80003790:	00073987          	fld	fs3,0(a4)
    80003794:	0007bc07          	fld	fs8,0(a5)
    80003798:	0087bb87          	fld	fs7,8(a5)
    8000379c:	0107bb07          	fld	fs6,16(a5)
    800037a0:	0187ba87          	fld	fs5,24(a5)
    800037a4:	0207ba07          	fld	fs4,32(a5)
    800037a8:	0005b907          	fld	fs2,0(a1)
    800037ac:	00063487          	fld	fs1,0(a2)
    800037b0:	0006b407          	fld	fs0,0(a3)
    800037b4:	00870713          	addi	a4,a4,8
    800037b8:	eb89fec3          	fmadd.d	ft9,fs3,fs8,ft9
    800037bc:	fb79ffc3          	fmadd.d	ft11,fs3,fs7,ft11
    800037c0:	f369ff43          	fmadd.d	ft10,fs3,fs6,ft10
    800037c4:	e359fe43          	fmadd.d	ft8,fs3,fs5,ft8
    800037c8:	5349f543          	fmadd.d	fa0,fs3,fs4,fa0
    800037cc:	8b8978c3          	fmadd.d	fa7,fs2,fs8,fa7
    800037d0:	83797843          	fmadd.d	fa6,fs2,fs7,fa6
    800037d4:	3b6973c3          	fmadd.d	ft7,fs2,fs6,ft7
    800037d8:	33597343          	fmadd.d	ft6,fs2,fs5,ft6
    800037dc:	63497643          	fmadd.d	fa2,fs2,fs4,fa2
    800037e0:	1384f143          	fmadd.d	ft2,fs1,fs8,ft2
    800037e4:	2b74f2c3          	fmadd.d	ft5,fs1,fs7,ft5
    800037e8:	2364f243          	fmadd.d	ft4,fs1,fs6,ft4
    800037ec:	1b54f1c3          	fmadd.d	ft3,fs1,fs5,ft3
    800037f0:	7344f743          	fmadd.d	fa4,fs1,fs4,fa4
    800037f4:	5b8475c3          	fmadd.d	fa1,fs0,fs8,fa1
    800037f8:	0b7470c3          	fmadd.d	ft1,fs0,fs7,ft1
    800037fc:	03647043          	fmadd.d	ft0,fs0,fs6,ft0
    80003800:	6b5476c3          	fmadd.d	fa3,fs0,fs5,fa3
    80003804:	7b4477c3          	fmadd.d	fa5,fs0,fs4,fa5
    80003808:	013787b3          	add	a5,a5,s3
    8000380c:	f7276ce3          	bltu	a4,s2,80003784 <mm_cb+0x159c>
    80003810:	01d53027          	fsd	ft9,0(a0)
    80003814:	01f53427          	fsd	ft11,8(a0)
    80003818:	01e53827          	fsd	ft10,16(a0)
    8000381c:	01c53c27          	fsd	ft8,24(a0)
    80003820:	02a53027          	fsd	fa0,32(a0)
    80003824:	0d153427          	fsd	fa7,200(a0)
    80003828:	0d053827          	fsd	fa6,208(a0)
    8000382c:	0c753c27          	fsd	ft7,216(a0)
    80003830:	0e653027          	fsd	ft6,224(a0)
    80003834:	0ec53427          	fsd	fa2,232(a0)
    80003838:	18253827          	fsd	ft2,400(a0)
    8000383c:	18553c27          	fsd	ft5,408(a0)
    80003840:	1a453027          	fsd	ft4,416(a0)
    80003844:	1a353427          	fsd	ft3,424(a0)
    80003848:	1ae53827          	fsd	fa4,432(a0)
    8000384c:	24b53c27          	fsd	fa1,600(a0)
    80003850:	26153027          	fsd	ft1,608(a0)
    80003854:	26053427          	fsd	ft0,616(a0)
    80003858:	26d53827          	fsd	fa3,624(a0)
    8000385c:	26f53c27          	fsd	fa5,632(a0)
    80003860:	028e0e13          	addi	t3,t3,40
    80003864:	02850513          	addi	a0,a0,40
    80003868:	b5c39ee3          	bne	t2,t3,800033c4 <mm_cb+0x11dc>
    8000386c:	01900793          	li	a5,25
    80003870:	00f13023          	sd	a5,0(sp)
    80003874:	f2843803          	ld	a6,-216(s0)
    80003878:	ed843783          	ld	a5,-296(s0)
    8000387c:	f2043703          	ld	a4,-224(s0)
    80003880:	e4843603          	ld	a2,-440(s0)
    80003884:	064e8e93          	addi	t4,t4,100
    80003888:	000f0893          	mv	a7,t5
    8000388c:	000d8693          	mv	a3,s11
    80003890:	00000593          	li	a1,0
    80003894:	00400513          	li	a0,4
    80003898:	dbf43c23          	sd	t6,-584(s0)
    8000389c:	e1e43423          	sd	t5,-504(s0)
    800038a0:	e1d43c23          	sd	t4,-488(s0)
    800038a4:	f5cfe0ef          	jal	ra,80002000 <mm_naive>
    800038a8:	e4043783          	ld	a5,-448(s0)
    800038ac:	e0843f03          	ld	t5,-504(s0)
    800038b0:	e1843e83          	ld	t4,-488(s0)
    800038b4:	25800293          	li	t0,600
    800038b8:	db843f83          	ld	t6,-584(s0)
    800038bc:	00fd8db3          	add	s11,s11,a5
    800038c0:	320f0f13          	addi	t5,t5,800
    800038c4:	00f484b3          	add	s1,s1,a5
    800038c8:	00f90933          	add	s2,s2,a5
    800038cc:	ae5e94e3          	bne	t4,t0,800033b4 <mm_cb+0x11cc>
    800038d0:	e9843e83          	ld	t4,-360(s0)
    800038d4:	01900793          	li	a5,25
    800038d8:	00f13023          	sd	a5,0(sp)
    800038dc:	f2843803          	ld	a6,-216(s0)
    800038e0:	f2043703          	ld	a4,-224(s0)
    800038e4:	e6043683          	ld	a3,-416(s0)
    800038e8:	e4843603          	ld	a2,-440(s0)
    800038ec:	000017b7          	lui	a5,0x1
    800038f0:	2c078793          	addi	a5,a5,704 # 12c0 <buflen.2978+0x1240>
    800038f4:	00fe88b3          	add	a7,t4,a5
    800038f8:	01900593          	li	a1,25
    800038fc:	000f8793          	mv	a5,t6
    80003900:	00000513          	li	a0,0
    80003904:	efcfe0ef          	jal	ra,80002000 <mm_naive>
    80003908:	bc8ff06f          	j	80002cd0 <mm_cb+0xae8>
    8000390c:	e6843703          	ld	a4,-408(s0)
    80003910:	ee843783          	ld	a5,-280(s0)
    80003914:	00e787b3          	add	a5,a5,a4
    80003918:	e6f43023          	sd	a5,-416(s0)
    8000391c:	ef843703          	ld	a4,-264(s0)
    80003920:	ed043783          	ld	a5,-304(s0)
    80003924:	bef76063          	bltu	a4,a5,80002d04 <mm_cb+0xb1c>
    80003928:	ee043783          	ld	a5,-288(s0)
    8000392c:	ea843703          	ld	a4,-344(s0)
    80003930:	00e787b3          	add	a5,a5,a4
    80003934:	ecf43023          	sd	a5,-320(s0)
    80003938:	ec043703          	ld	a4,-320(s0)
    8000393c:	e9043783          	ld	a5,-368(s0)
    80003940:	eee43023          	sd	a4,-288(s0)
    80003944:	e6043703          	ld	a4,-416(s0)
    80003948:	01878793          	addi	a5,a5,24
    8000394c:	e8f43823          	sd	a5,-368(s0)
    80003950:	eee43423          	sd	a4,-280(s0)
    80003954:	f1043703          	ld	a4,-240(s0)
    80003958:	00e7f463          	bgeu	a5,a4,80003960 <mm_cb+0x1778>
    8000395c:	e2dfe06f          	j	80002788 <mm_cb+0x5a0>
    80003960:	e7843783          	ld	a5,-392(s0)
    80003964:	f1043703          	ld	a4,-240(s0)
    80003968:	16f76c63          	bltu	a4,a5,80003ae0 <mm_cb+0x18f8>
    8000396c:	e2843783          	ld	a5,-472(s0)
    80003970:	00043703          	ld	a4,0(s0)
    80003974:	eb043e03          	ld	t3,-336(s0)
    80003978:	ef843483          	ld	s1,-264(s0)
    8000397c:	00001537          	lui	a0,0x1
    80003980:	00e78eb3          	add	t4,a5,a4
    80003984:	2c050f93          	addi	t6,a0,704 # 12c0 <buflen.2978+0x1240>
    80003988:	006e9e93          	slli	t4,t4,0x6
    8000398c:	00000813          	li	a6,0
    80003990:	01800393          	li	t2,24
    80003994:	01900293          	li	t0,25
    80003998:	38050513          	addi	a0,a0,896
    8000399c:	0a048863          	beqz	s1,80003a4c <mm_cb+0x1864>
    800039a0:	027855b3          	divu	a1,a6,t2
    800039a4:	f0043783          	ld	a5,-256(s0)
    800039a8:	000e0f13          	mv	t5,t3
    800039ac:	00000893          	li	a7,0
    800039b0:	02f585b3          	mul	a1,a1,a5
    800039b4:	ec843703          	ld	a4,-312(s0)
    800039b8:	000f0313          	mv	t1,t5
    800039bc:	0258d7b3          	divu	a5,a7,t0
    800039c0:	00b787b3          	add	a5,a5,a1
    800039c4:	03f787b3          	mul	a5,a5,t6
    800039c8:	00f707b3          	add	a5,a4,a5
    800039cc:	0c078693          	addi	a3,a5,192
    800039d0:	00a78633          	add	a2,a5,a0
    800039d4:	f4068793          	addi	a5,a3,-192
    800039d8:	00030713          	mv	a4,t1
    800039dc:	0007b087          	fld	ft1,0(a5)
    800039e0:	0087b007          	fld	ft0,8(a5)
    800039e4:	0107b507          	fld	fa0,16(a5)
    800039e8:	0187b587          	fld	fa1,24(a5)
    800039ec:	0207b607          	fld	fa2,32(a5)
    800039f0:	0287b687          	fld	fa3,40(a5)
    800039f4:	0307b707          	fld	fa4,48(a5)
    800039f8:	0387b787          	fld	fa5,56(a5)
    800039fc:	00173027          	fsd	ft1,0(a4)
    80003a00:	00073427          	fsd	ft0,8(a4)
    80003a04:	00a73827          	fsd	fa0,16(a4)
    80003a08:	00b73c27          	fsd	fa1,24(a4)
    80003a0c:	02c73027          	fsd	fa2,32(a4)
    80003a10:	02d73427          	fsd	fa3,40(a4)
    80003a14:	02e73827          	fsd	fa4,48(a4)
    80003a18:	02f73c27          	fsd	fa5,56(a4)
    80003a1c:	04078793          	addi	a5,a5,64
    80003a20:	04070713          	addi	a4,a4,64
    80003a24:	faf69ce3          	bne	a3,a5,800039dc <mm_cb+0x17f4>
    80003a28:	0006b787          	fld	fa5,0(a3)
    80003a2c:	ef043783          	ld	a5,-272(s0)
    80003a30:	0c868693          	addi	a3,a3,200
    80003a34:	0cf33027          	fsd	fa5,192(t1)
    80003a38:	00f30333          	add	t1,t1,a5
    80003a3c:	f8d61ce3          	bne	a2,a3,800039d4 <mm_cb+0x17ec>
    80003a40:	01988893          	addi	a7,a7,25
    80003a44:	0c8f0f13          	addi	t5,t5,200
    80003a48:	f698e6e3          	bltu	a7,s1,800039b4 <mm_cb+0x17cc>
    80003a4c:	f1043783          	ld	a5,-240(s0)
    80003a50:	01880813          	addi	a6,a6,24
    80003a54:	01de0e33          	add	t3,t3,t4
    80003a58:	f4f862e3          	bltu	a6,a5,8000399c <mm_cb+0x17b4>
    80003a5c:	d8040113          	addi	sp,s0,-640
    80003a60:	27813083          	ld	ra,632(sp)
    80003a64:	27013403          	ld	s0,624(sp)
    80003a68:	26813483          	ld	s1,616(sp)
    80003a6c:	26013903          	ld	s2,608(sp)
    80003a70:	25813983          	ld	s3,600(sp)
    80003a74:	25013a03          	ld	s4,592(sp)
    80003a78:	24813a83          	ld	s5,584(sp)
    80003a7c:	24013b03          	ld	s6,576(sp)
    80003a80:	23813b83          	ld	s7,568(sp)
    80003a84:	23013c03          	ld	s8,560(sp)
    80003a88:	22813c83          	ld	s9,552(sp)
    80003a8c:	22013d03          	ld	s10,544(sp)
    80003a90:	21813d83          	ld	s11,536(sp)
    80003a94:	20813407          	fld	fs0,520(sp)
    80003a98:	20013487          	fld	fs1,512(sp)
    80003a9c:	1f813907          	fld	fs2,504(sp)
    80003aa0:	1f013987          	fld	fs3,496(sp)
    80003aa4:	1e813a07          	fld	fs4,488(sp)
    80003aa8:	1e013a87          	fld	fs5,480(sp)
    80003aac:	1d813b07          	fld	fs6,472(sp)
    80003ab0:	1d013b87          	fld	fs7,464(sp)
    80003ab4:	1c813c07          	fld	fs8,456(sp)
    80003ab8:	1c013c87          	fld	fs9,448(sp)
    80003abc:	1b813d07          	fld	fs10,440(sp)
    80003ac0:	1b013d87          	fld	fs11,432(sp)
    80003ac4:	28010113          	addi	sp,sp,640
    80003ac8:	00008067          	ret
    80003acc:	f0843783          	ld	a5,-248(s0)
    80003ad0:	00078463          	beqz	a5,80003ad8 <mm_cb+0x18f0>
    80003ad4:	955fe06f          	j	80002428 <mm_cb+0x240>
    80003ad8:	e7843783          	ld	a5,-392(s0)
    80003adc:	f80780e3          	beqz	a5,80003a5c <mm_cb+0x1874>
    80003ae0:	ed043783          	ld	a5,-304(s0)
    80003ae4:	78078263          	beqz	a5,80004268 <mm_cb+0x2080>
    80003ae8:	e7843783          	ld	a5,-392(s0)
    80003aec:	01800693          	li	a3,24
    80003af0:	f2843603          	ld	a2,-216(s0)
    80003af4:	02d7f6b3          	remu	a3,a5,a3
    80003af8:	00043783          	ld	a5,0(s0)
    80003afc:	f2043503          	ld	a0,-224(s0)
    80003b00:	00261713          	slli	a4,a2,0x2
    80003b04:	00379593          	slli	a1,a5,0x3
    80003b08:	00161793          	slli	a5,a2,0x1
    80003b0c:	00c787b3          	add	a5,a5,a2
    80003b10:	00479c93          	slli	s9,a5,0x4
    80003b14:	00379b13          	slli	s6,a5,0x3
    80003b18:	00679793          	slli	a5,a5,0x6
    80003b1c:	e2f43023          	sd	a5,-480(s0)
    80003b20:	00551793          	slli	a5,a0,0x5
    80003b24:	e2f43423          	sd	a5,-472(s0)
    80003b28:	00043783          	ld	a5,0(s0)
    80003b2c:	00c70733          	add	a4,a4,a2
    80003b30:	00371d93          	slli	s11,a4,0x3
    80003b34:	00579793          	slli	a5,a5,0x5
    80003b38:	e7043703          	ld	a4,-400(s0)
    80003b3c:	e2f43823          	sd	a5,-464(s0)
    80003b40:	f1043783          	ld	a5,-240(s0)
    80003b44:	eae43023          	sd	a4,-352(s0)
    80003b48:	00461a93          	slli	s5,a2,0x4
    80003b4c:	00561c13          	slli	s8,a2,0x5
    80003b50:	00361993          	slli	s3,a2,0x3
    80003b54:	00351d13          	slli	s10,a0,0x3
    80003b58:	000c0b93          	mv	s7,s8
    80003b5c:	000d8393          	mv	t2,s11
    80003b60:	000a8c13          	mv	s8,s5
    80003b64:	000c8d93          	mv	s11,s9
    80003b68:	eeb43823          	sd	a1,-272(s0)
    80003b6c:	ec043023          	sd	zero,-320(s0)
    80003b70:	000b0a93          	mv	s5,s6
    80003b74:	00098c93          	mv	s9,s3
    80003b78:	02b78733          	mul	a4,a5,a1
    80003b7c:	ffc6f613          	andi	a2,a3,-4
    80003b80:	0036f693          	andi	a3,a3,3
    80003b84:	e6d43423          	sd	a3,-408(s0)
    80003b88:	eb043683          	ld	a3,-336(s0)
    80003b8c:	e8c43823          	sd	a2,-368(s0)
    80003b90:	00e68733          	add	a4,a3,a4
    80003b94:	f0e43423          	sd	a4,-248(s0)
    80003b98:	03a60733          	mul	a4,a2,s10
    80003b9c:	03a787b3          	mul	a5,a5,s10
    80003ba0:	e6e43023          	sd	a4,-416(s0)
    80003ba4:	e3843703          	ld	a4,-456(s0)
    80003ba8:	00f707b3          	add	a5,a4,a5
    80003bac:	e4f43023          	sd	a5,-448(s0)
    80003bb0:	02b607b3          	mul	a5,a2,a1
    80003bb4:	e4f43c23          	sd	a5,-424(s0)
    80003bb8:	f1843783          	ld	a5,-232(s0)
    80003bbc:	68078063          	beqz	a5,8000423c <mm_cb+0x2054>
    80003bc0:	ec043703          	ld	a4,-320(s0)
    80003bc4:	ed043783          	ld	a5,-304(s0)
    80003bc8:	40e787b3          	sub	a5,a5,a4
    80003bcc:	ecf43c23          	sd	a5,-296(s0)
    80003bd0:	01900713          	li	a4,25
    80003bd4:	00f77663          	bgeu	a4,a5,80003be0 <mm_cb+0x19f8>
    80003bd8:	01900793          	li	a5,25
    80003bdc:	ecf43c23          	sd	a5,-296(s0)
    80003be0:	ed843703          	ld	a4,-296(s0)
    80003be4:	00500693          	li	a3,5
    80003be8:	e5843603          	ld	a2,-424(s0)
    80003bec:	02d757b3          	divu	a5,a4,a3
    80003bf0:	f0843583          	ld	a1,-248(s0)
    80003bf4:	ea043c23          	sd	zero,-328(s0)
    80003bf8:	00038993          	mv	s3,t2
    80003bfc:	00b60633          	add	a2,a2,a1
    80003c00:	e4c43823          	sd	a2,-432(s0)
    80003c04:	e4043603          	ld	a2,-448(s0)
    80003c08:	e8c43c23          	sd	a2,-360(s0)
    80003c0c:	ea043603          	ld	a2,-352(s0)
    80003c10:	eec43423          	sd	a2,-280(s0)
    80003c14:	02d77733          	remu	a4,a4,a3
    80003c18:	e6e43823          	sd	a4,-400(s0)
    80003c1c:	00279713          	slli	a4,a5,0x2
    80003c20:	00f70b33          	add	s6,a4,a5
    80003c24:	003b1793          	slli	a5,s6,0x3
    80003c28:	e8f43423          	sd	a5,-376(s0)
    80003c2c:	f1843783          	ld	a5,-232(s0)
    80003c30:	eb843703          	ld	a4,-328(s0)
    80003c34:	40e783b3          	sub	t2,a5,a4
    80003c38:	01800793          	li	a5,24
    80003c3c:	0077f463          	bgeu	a5,t2,80003c44 <mm_cb+0x1a5c>
    80003c40:	01800393          	li	t2,24
    80003c44:	e9043783          	ld	a5,-368(s0)
    80003c48:	58078863          	beqz	a5,800041d8 <mm_cb+0x1ff0>
    80003c4c:	ee843703          	ld	a4,-280(s0)
    80003c50:	e8843783          	ld	a5,-376(s0)
    80003c54:	00339913          	slli	s2,t2,0x3
    80003c58:	ea043423          	sd	zero,-344(s0)
    80003c5c:	00e787b3          	add	a5,a5,a4
    80003c60:	e4f43423          	sd	a5,-440(s0)
    80003c64:	f0843783          	ld	a5,-248(s0)
    80003c68:	e9843703          	ld	a4,-360(s0)
    80003c6c:	e8743023          	sd	t2,-384(s0)
    80003c70:	eef43023          	sd	a5,-288(s0)
    80003c74:	00600793          	li	a5,6
    80003c78:	02f3d7b3          	divu	a5,t2,a5
    80003c7c:	01270933          	add	s2,a4,s2
    80003c80:	00070a13          	mv	s4,a4
    80003c84:	00179493          	slli	s1,a5,0x1
    80003c88:	00f484b3          	add	s1,s1,a5
    80003c8c:	03b787b3          	mul	a5,a5,s11
    80003c90:	00449493          	slli	s1,s1,0x4
    80003c94:	009704b3          	add	s1,a4,s1
    80003c98:	e6f43c23          	sd	a5,-392(s0)
    80003c9c:	4c0b0663          	beqz	s6,80004168 <mm_cb+0x1f80>
    80003ca0:	ef043783          	ld	a5,-272(s0)
    80003ca4:	ee043883          	ld	a7,-288(s0)
    80003ca8:	ee843f83          	ld	t6,-280(s0)
    80003cac:	e7843383          	ld	t2,-392(s0)
    80003cb0:	01178833          	add	a6,a5,a7
    80003cb4:	01078533          	add	a0,a5,a6
    80003cb8:	00a78333          	add	t1,a5,a0
    80003cbc:	00000293          	li	t0,0
    80003cc0:	0008be87          	fld	ft9,0(a7)
    80003cc4:	0088bf87          	fld	ft11,8(a7)
    80003cc8:	0108bf07          	fld	ft10,16(a7)
    80003ccc:	0188be07          	fld	ft8,24(a7)
    80003cd0:	0208b507          	fld	fa0,32(a7)
    80003cd4:	00083887          	fld	fa7,0(a6)
    80003cd8:	00883807          	fld	fa6,8(a6)
    80003cdc:	01083387          	fld	ft7,16(a6)
    80003ce0:	01883307          	fld	ft6,24(a6)
    80003ce4:	02083607          	fld	fa2,32(a6)
    80003ce8:	00053107          	fld	ft2,0(a0)
    80003cec:	00853287          	fld	ft5,8(a0)
    80003cf0:	01053207          	fld	ft4,16(a0)
    80003cf4:	01853187          	fld	ft3,24(a0)
    80003cf8:	02053707          	fld	fa4,32(a0)
    80003cfc:	00033587          	fld	fa1,0(t1)
    80003d00:	00833087          	fld	ft1,8(t1)
    80003d04:	01033007          	fld	ft0,16(t1)
    80003d08:	01833687          	fld	fa3,24(t1)
    80003d0c:	02033787          	fld	fa5,32(t1)
    80003d10:	000f8793          	mv	a5,t6
    80003d14:	349a7863          	bgeu	s4,s1,80004064 <mm_cb+0x1e7c>
    80003d18:	22210dd3          	fmv.d	fs11,ft2
    80003d1c:	221084d3          	fmv.d	fs1,ft1
    80003d20:	22e70153          	fmv.d	ft2,fa4
    80003d24:	223180d3          	fmv.d	ft1,ft3
    80003d28:	22000953          	fmv.d	fs2,ft0
    80003d2c:	22f781d3          	fmv.d	ft3,fa5
    80003d30:	014d0633          	add	a2,s10,s4
    80003d34:	23ff8753          	fmv.d	fa4,ft11
    80003d38:	22b58453          	fmv.d	fs0,fa1
    80003d3c:	23de8053          	fmv.d	ft0,ft9
    80003d40:	22d689d3          	fmv.d	fs3,fa3
    80003d44:	23ef07d3          	fmv.d	fa5,ft10
    80003d48:	00cd06b3          	add	a3,s10,a2
    80003d4c:	00dd05b3          	add	a1,s10,a3
    80003d50:	000a0713          	mv	a4,s4
    80003d54:	00073c87          	fld	fs9,0(a4)
    80003d58:	00063b87          	fld	fs7,0(a2)
    80003d5c:	0006bd07          	fld	fs10,0(a3)
    80003d60:	0005bb07          	fld	fs6,0(a1)
    80003d64:	0007bc07          	fld	fs8,0(a5)
    80003d68:	0087ba87          	fld	fs5,8(a5)
    80003d6c:	0107ba07          	fld	fs4,16(a5)
    80003d70:	0187b587          	fld	fa1,24(a5)
    80003d74:	0207b687          	fld	fa3,32(a5)
    80003d78:	db8d7dc3          	fmadd.d	fs11,fs10,fs8,fs11
    80003d7c:	038cf043          	fmadd.d	ft0,fs9,fs8,ft0
    80003d80:	735cf743          	fmadd.d	fa4,fs9,fs5,fa4
    80003d84:	7b4cf7c3          	fmadd.d	fa5,fs9,fs4,fa5
    80003d88:	e2bcfe43          	fmadd.d	ft8,fs9,fa1,ft8
    80003d8c:	52dcf543          	fmadd.d	fa0,fs9,fa3,fa0
    80003d90:	8b8bf8c3          	fmadd.d	fa7,fs7,fs8,fa7
    80003d94:	32bbfcc3          	fmadd.d	fs9,fs7,fa1,ft6
    80003d98:	835bf843          	fmadd.d	fa6,fs7,fs5,fa6
    80003d9c:	2b5d7343          	fmadd.d	ft6,fs10,fs5,ft5
    80003da0:	3b4bf3c3          	fmadd.d	ft7,fs7,fs4,ft7
    80003da4:	62dbf643          	fmadd.d	fa2,fs7,fa3,fa2
    80003da8:	0abd70c3          	fmadd.d	ft1,fs10,fa1,ft1
    80003dac:	234d7bc3          	fmadd.d	fs7,fs10,fs4,ft4
    80003db0:	12dd7143          	fmadd.d	ft2,fs10,fa3,ft2
    80003db4:	438b7443          	fmadd.d	fs0,fs6,fs8,fs0
    80003db8:	4b5b74c3          	fmadd.d	fs1,fs6,fs5,fs1
    80003dbc:	934b7943          	fmadd.d	fs2,fs6,fs4,fs2
    80003dc0:	9abb79c3          	fmadd.d	fs3,fs6,fa1,fs3
    80003dc4:	1adb7b43          	fmadd.d	fs6,fs6,fa3,ft3
    80003dc8:	00fc8e33          	add	t3,s9,a5
    80003dcc:	00873187          	fld	ft3,8(a4)
    80003dd0:	00863207          	fld	ft4,8(a2)
    80003dd4:	0086b587          	fld	fa1,8(a3)
    80003dd8:	0085b687          	fld	fa3,8(a1)
    80003ddc:	000e3a87          	fld	fs5,0(t3)
    80003de0:	008e3a07          	fld	fs4,8(t3)
    80003de4:	010e3f87          	fld	ft11,16(t3)
    80003de8:	018e3f07          	fld	ft10,24(t3)
    80003dec:	020e3e87          	fld	ft9,32(t3)
    80003df0:	db55f2c3          	fmadd.d	ft5,fa1,fs5,fs11
    80003df4:	cbe27cc3          	fmadd.d	fs9,ft4,ft10,fs9
    80003df8:	3345f343          	fmadd.d	ft6,fa1,fs4,ft6
    80003dfc:	13d5f143          	fmadd.d	ft2,fa1,ft9,ft2
    80003e00:	0351f043          	fmadd.d	ft0,ft3,fs5,ft0
    80003e04:	7341f743          	fmadd.d	fa4,ft3,fs4,fa4
    80003e08:	7bf1f7c3          	fmadd.d	fa5,ft3,ft11,fa5
    80003e0c:	e3e1fe43          	fmadd.d	ft8,ft3,ft10,ft8
    80003e10:	53d1f543          	fmadd.d	fa0,ft3,ft9,fa0
    80003e14:	8b5278c3          	fmadd.d	fa7,ft4,fs5,fa7
    80003e18:	83427843          	fmadd.d	fa6,ft4,fs4,fa6
    80003e1c:	3bf273c3          	fmadd.d	ft7,ft4,ft11,ft7
    80003e20:	63d27643          	fmadd.d	fa2,ft4,ft9,fa2
    80003e24:	bbf5fbc3          	fmadd.d	fs7,fa1,ft11,fs7
    80003e28:	0be5f0c3          	fmadd.d	ft1,fa1,ft10,ft1
    80003e2c:	4356f443          	fmadd.d	fs0,fa3,fs5,fs0
    80003e30:	4b46f4c3          	fmadd.d	fs1,fa3,fs4,fs1
    80003e34:	93f6f943          	fmadd.d	fs2,fa3,ft11,fs2
    80003e38:	9be6f9c3          	fmadd.d	fs3,fa3,ft10,fs3
    80003e3c:	b3d6f6c3          	fmadd.d	fa3,fa3,ft9,fs6
    80003e40:	00fc0e33          	add	t3,s8,a5
    80003e44:	01073207          	fld	ft4,16(a4)
    80003e48:	01063b07          	fld	fs6,16(a2)
    80003e4c:	0106b587          	fld	fa1,16(a3)
    80003e50:	0105be87          	fld	ft9,16(a1)
    80003e54:	000e3c07          	fld	fs8,0(t3)
    80003e58:	008e3a07          	fld	fs4,8(t3)
    80003e5c:	010e3f87          	fld	ft11,16(t3)
    80003e60:	018e3f07          	fld	ft10,24(t3)
    80003e64:	020e3a87          	fld	fs5,32(t3)
    80003e68:	3bfb73c3          	fmadd.d	ft7,fs6,ft11,ft7
    80003e6c:	03827043          	fmadd.d	ft0,ft4,fs8,ft0
    80003e70:	1355f1c3          	fmadd.d	ft3,fa1,fs5,ft2
    80003e74:	6b5ef6c3          	fmadd.d	fa3,ft9,fs5,fa3
    80003e78:	73427743          	fmadd.d	fa4,ft4,fs4,fa4
    80003e7c:	7bf277c3          	fmadd.d	fa5,ft4,ft11,fa5
    80003e80:	e3e27e43          	fmadd.d	ft8,ft4,ft10,ft8
    80003e84:	53527543          	fmadd.d	fa0,ft4,fs5,fa0
    80003e88:	8b8b78c3          	fmadd.d	fa7,fs6,fs8,fa7
    80003e8c:	cbeb7243          	fmadd.d	ft4,fs6,ft10,fs9
    80003e90:	834b7843          	fmadd.d	fa6,fs6,fs4,fa6
    80003e94:	635b7643          	fmadd.d	fa2,fs6,fs5,fa2
    80003e98:	2b85f2c3          	fmadd.d	ft5,fa1,fs8,ft5
    80003e9c:	3345fb43          	fmadd.d	fs6,fa1,fs4,ft6
    80003ea0:	bbf5fbc3          	fmadd.d	fs7,fa1,ft11,fs7
    80003ea4:	0be5f0c3          	fmadd.d	ft1,fa1,ft10,ft1
    80003ea8:	438ef443          	fmadd.d	fs0,ft9,fs8,fs0
    80003eac:	4b4ef4c3          	fmadd.d	fs1,ft9,fs4,fs1
    80003eb0:	93fef943          	fmadd.d	fs2,ft9,ft11,fs2
    80003eb4:	9beef9c3          	fmadd.d	fs3,ft9,ft10,fs3
    80003eb8:	01578e33          	add	t3,a5,s5
    80003ebc:	01873587          	fld	fa1,24(a4)
    80003ec0:	000e3a87          	fld	fs5,0(t3)
    80003ec4:	008e3a07          	fld	fs4,8(t3)
    80003ec8:	010e3f87          	fld	ft11,16(t3)
    80003ecc:	018e3f07          	fld	ft10,24(t3)
    80003ed0:	020e3e87          	fld	ft9,32(t3)
    80003ed4:	01863c87          	fld	fs9,24(a2)
    80003ed8:	0185bc07          	fld	fs8,24(a1)
    80003edc:	0186b107          	fld	ft2,24(a3)
    80003ee0:	53d5f543          	fmadd.d	fa0,fa1,ft9,fa0
    80003ee4:	3bfcf343          	fmadd.d	ft6,fs9,ft11,ft7
    80003ee8:	435c7443          	fmadd.d	fs0,fs8,fs5,fs0
    80003eec:	4b4c74c3          	fmadd.d	fs1,fs8,fs4,fs1
    80003ef0:	93fc7943          	fmadd.d	fs2,fs8,ft11,fs2
    80003ef4:	9bec79c3          	fmadd.d	fs3,fs8,ft10,fs3
    80003ef8:	0355f043          	fmadd.d	ft0,fa1,fs5,ft0
    80003efc:	7345f743          	fmadd.d	fa4,fa1,fs4,fa4
    80003f00:	7bf5f7c3          	fmadd.d	fa5,fa1,ft11,fa5
    80003f04:	e3e5fe43          	fmadd.d	ft8,fa1,ft10,ft8
    80003f08:	8b5cf8c3          	fmadd.d	fa7,fs9,fs5,fa7
    80003f0c:	834cf843          	fmadd.d	fa6,fs9,fs4,fa6
    80003f10:	23ecf243          	fmadd.d	ft4,fs9,ft10,ft4
    80003f14:	63dcf643          	fmadd.d	fa2,fs9,ft9,fa2
    80003f18:	2b5172c3          	fmadd.d	ft5,ft2,fs5,ft5
    80003f1c:	b3417b43          	fmadd.d	fs6,ft2,fs4,fs6
    80003f20:	bbf17bc3          	fmadd.d	fs7,ft2,ft11,fs7
    80003f24:	0be170c3          	fmadd.d	ft1,ft2,ft10,ft1
    80003f28:	1bd17143          	fmadd.d	ft2,ft2,ft9,ft3
    80003f2c:	6bdc7ec3          	fmadd.d	ft9,fs8,ft9,fa3
    80003f30:	00fb8e33          	add	t3,s7,a5
    80003f34:	0206b687          	fld	fa3,32(a3)
    80003f38:	0205bd87          	fld	fs11,32(a1)
    80003f3c:	02073587          	fld	fa1,32(a4)
    80003f40:	02063f07          	fld	ft10,32(a2)
    80003f44:	000e3c07          	fld	fs8,0(t3)
    80003f48:	008e3f87          	fld	ft11,8(t3)
    80003f4c:	010e3d07          	fld	fs10,16(t3)
    80003f50:	018e3c87          	fld	fs9,24(t3)
    80003f54:	020e3187          	fld	ft3,32(t3)
    80003f58:	2b86f2c3          	fmadd.d	ft5,fa3,fs8,ft5
    80003f5c:	0385f043          	fmadd.d	ft0,fa1,fs8,ft0
    80003f60:	73f5f743          	fmadd.d	fa4,fa1,ft11,fa4
    80003f64:	7ba5f7c3          	fmadd.d	fa5,fa1,fs10,fa5
    80003f68:	e395fe43          	fmadd.d	ft8,fa1,fs9,ft8
    80003f6c:	33af7343          	fmadd.d	ft6,ft10,fs10,ft6
    80003f70:	5235f5c3          	fmadd.d	fa1,fa1,ft3,fa0
    80003f74:	239f7243          	fmadd.d	ft4,ft10,fs9,ft4
    80003f78:	b3f6fb43          	fmadd.d	fs6,fa3,ft11,fs6
    80003f7c:	bba6fbc3          	fmadd.d	fs7,fa3,fs10,fs7
    80003f80:	0b96f0c3          	fmadd.d	ft1,fa3,fs9,ft1
    80003f84:	1236f143          	fmadd.d	ft2,fa3,ft3,ft2
    80003f88:	93adfd43          	fmadd.d	fs10,fs11,fs10,fs2
    80003f8c:	9b9dfcc3          	fmadd.d	fs9,fs11,fs9,fs3
    80003f90:	8b8f78c3          	fmadd.d	fa7,ft10,fs8,fa7
    80003f94:	83ff7843          	fmadd.d	fa6,ft10,ft11,fa6
    80003f98:	438dfc43          	fmadd.d	fs8,fs11,fs8,fs0
    80003f9c:	4bfdffc3          	fmadd.d	ft11,fs11,ft11,fs1
    80003fa0:	623f7643          	fmadd.d	fa2,ft10,ft3,fa2
    80003fa4:	ea3df1c3          	fmadd.d	ft3,fs11,ft3,ft9
    80003fa8:	01378e33          	add	t3,a5,s3
    80003fac:	02863d87          	fld	fs11,40(a2)
    80003fb0:	02873507          	fld	fa0,40(a4)
    80003fb4:	0286b687          	fld	fa3,40(a3)
    80003fb8:	0285ba87          	fld	fs5,40(a1)
    80003fbc:	000e3407          	fld	fs0,0(t3)
    80003fc0:	008e3487          	fld	fs1,8(t3)
    80003fc4:	010e3907          	fld	fs2,16(t3)
    80003fc8:	018e3987          	fld	fs3,24(t3)
    80003fcc:	020e3a07          	fld	fs4,32(t3)
    80003fd0:	03070713          	addi	a4,a4,48
    80003fd4:	332df3c3          	fmadd.d	ft7,fs11,fs2,ft6
    80003fd8:	02857043          	fmadd.d	ft0,fa0,fs0,ft0
    80003fdc:	233df343          	fmadd.d	ft6,fs11,fs3,ft4
    80003fe0:	72957743          	fmadd.d	fa4,fa0,fs1,fa4
    80003fe4:	7b2577c3          	fmadd.d	fa5,fa0,fs2,fa5
    80003fe8:	e3357e43          	fmadd.d	ft8,fa0,fs3,ft8
    80003fec:	8a8df8c3          	fmadd.d	fa7,fs11,fs0,fa7
    80003ff0:	829df843          	fmadd.d	fa6,fs11,fs1,fa6
    80003ff4:	634df643          	fmadd.d	fa2,fs11,fs4,fa2
    80003ff8:	bb26f243          	fmadd.d	ft4,fa3,fs2,fs7
    80003ffc:	2a86fdc3          	fmadd.d	fs11,fa3,fs0,ft5
    80004000:	0b36f0c3          	fmadd.d	ft1,fa3,fs3,ft1
    80004004:	b296f2c3          	fmadd.d	ft5,fa3,fs1,fs6
    80004008:	5b457543          	fmadd.d	fa0,fa0,fs4,fa1
    8000400c:	1346f143          	fmadd.d	ft2,fa3,fs4,ft2
    80004010:	c28af443          	fmadd.d	fs0,fs5,fs0,fs8
    80004014:	fa9af4c3          	fmadd.d	fs1,fs5,fs1,ft11
    80004018:	d32af943          	fmadd.d	fs2,fs5,fs2,fs10
    8000401c:	cb3af9c3          	fmadd.d	fs3,fs5,fs3,fs9
    80004020:	1b4af1c3          	fmadd.d	ft3,fs5,fs4,ft3
    80004024:	01b787b3          	add	a5,a5,s11
    80004028:	03060613          	addi	a2,a2,48
    8000402c:	03068693          	addi	a3,a3,48
    80004030:	03058593          	addi	a1,a1,48
    80004034:	d29760e3          	bltu	a4,s1,80003d54 <mm_cb+0x1b6c>
    80004038:	22000ed3          	fmv.d	ft9,ft0
    8000403c:	22e70fd3          	fmv.d	ft11,fa4
    80004040:	22f78f53          	fmv.d	ft10,fa5
    80004044:	22210753          	fmv.d	fa4,ft2
    80004048:	223187d3          	fmv.d	fa5,ft3
    8000404c:	23bd8153          	fmv.d	ft2,fs11
    80004050:	221081d3          	fmv.d	ft3,ft1
    80004054:	228405d3          	fmv.d	fa1,fs0
    80004058:	23290053          	fmv.d	ft0,fs2
    8000405c:	233986d3          	fmv.d	fa3,fs3
    80004060:	229480d3          	fmv.d	ft1,fs1
    80004064:	01f387b3          	add	a5,t2,t6
    80004068:	0924fa63          	bgeu	s1,s2,800040fc <mm_cb+0x1f14>
    8000406c:	00048713          	mv	a4,s1
    80004070:	01a705b3          	add	a1,a4,s10
    80004074:	01a58633          	add	a2,a1,s10
    80004078:	01a606b3          	add	a3,a2,s10
    8000407c:	00073987          	fld	fs3,0(a4)
    80004080:	0007bc07          	fld	fs8,0(a5)
    80004084:	0087bb87          	fld	fs7,8(a5)
    80004088:	0107bb07          	fld	fs6,16(a5)
    8000408c:	0187ba87          	fld	fs5,24(a5)
    80004090:	0207ba07          	fld	fs4,32(a5)
    80004094:	0005b907          	fld	fs2,0(a1)
    80004098:	00063487          	fld	fs1,0(a2)
    8000409c:	0006b407          	fld	fs0,0(a3)
    800040a0:	00870713          	addi	a4,a4,8
    800040a4:	eb89fec3          	fmadd.d	ft9,fs3,fs8,ft9
    800040a8:	fb79ffc3          	fmadd.d	ft11,fs3,fs7,ft11
    800040ac:	f369ff43          	fmadd.d	ft10,fs3,fs6,ft10
    800040b0:	e359fe43          	fmadd.d	ft8,fs3,fs5,ft8
    800040b4:	5349f543          	fmadd.d	fa0,fs3,fs4,fa0
    800040b8:	8b8978c3          	fmadd.d	fa7,fs2,fs8,fa7
    800040bc:	83797843          	fmadd.d	fa6,fs2,fs7,fa6
    800040c0:	3b6973c3          	fmadd.d	ft7,fs2,fs6,ft7
    800040c4:	33597343          	fmadd.d	ft6,fs2,fs5,ft6
    800040c8:	63497643          	fmadd.d	fa2,fs2,fs4,fa2
    800040cc:	1384f143          	fmadd.d	ft2,fs1,fs8,ft2
    800040d0:	2b74f2c3          	fmadd.d	ft5,fs1,fs7,ft5
    800040d4:	2364f243          	fmadd.d	ft4,fs1,fs6,ft4
    800040d8:	1b54f1c3          	fmadd.d	ft3,fs1,fs5,ft3
    800040dc:	7344f743          	fmadd.d	fa4,fs1,fs4,fa4
    800040e0:	5b8475c3          	fmadd.d	fa1,fs0,fs8,fa1
    800040e4:	0b7470c3          	fmadd.d	ft1,fs0,fs7,ft1
    800040e8:	03647043          	fmadd.d	ft0,fs0,fs6,ft0
    800040ec:	6b5476c3          	fmadd.d	fa3,fs0,fs5,fa3
    800040f0:	7b4477c3          	fmadd.d	fa5,fs0,fs4,fa5
    800040f4:	019787b3          	add	a5,a5,s9
    800040f8:	f7276ce3          	bltu	a4,s2,80004070 <mm_cb+0x1e88>
    800040fc:	01d8b027          	fsd	ft9,0(a7)
    80004100:	01f8b427          	fsd	ft11,8(a7)
    80004104:	01e8b827          	fsd	ft10,16(a7)
    80004108:	01c8bc27          	fsd	ft8,24(a7)
    8000410c:	02a8b027          	fsd	fa0,32(a7)
    80004110:	01183027          	fsd	fa7,0(a6)
    80004114:	01083427          	fsd	fa6,8(a6)
    80004118:	00783827          	fsd	ft7,16(a6)
    8000411c:	00683c27          	fsd	ft6,24(a6)
    80004120:	02c83027          	fsd	fa2,32(a6)
    80004124:	00253027          	fsd	ft2,0(a0)
    80004128:	00553427          	fsd	ft5,8(a0)
    8000412c:	00453827          	fsd	ft4,16(a0)
    80004130:	00353c27          	fsd	ft3,24(a0)
    80004134:	02e53027          	fsd	fa4,32(a0)
    80004138:	00b33027          	fsd	fa1,0(t1)
    8000413c:	00133427          	fsd	ft1,8(t1)
    80004140:	00033827          	fsd	ft0,16(t1)
    80004144:	00d33c27          	fsd	fa3,24(t1)
    80004148:	02f33027          	fsd	fa5,32(t1)
    8000414c:	00528293          	addi	t0,t0,5
    80004150:	02888893          	addi	a7,a7,40
    80004154:	02880813          	addi	a6,a6,40
    80004158:	02850513          	addi	a0,a0,40
    8000415c:	02830313          	addi	t1,t1,40
    80004160:	028f8f93          	addi	t6,t6,40
    80004164:	b562eee3          	bltu	t0,s6,80003cc0 <mm_cb+0x1ad8>
    80004168:	e8843703          	ld	a4,-376(s0)
    8000416c:	ee043783          	ld	a5,-288(s0)
    80004170:	ea843303          	ld	t1,-344(s0)
    80004174:	f2843803          	ld	a6,-216(s0)
    80004178:	00f708b3          	add	a7,a4,a5
    8000417c:	00043703          	ld	a4,0(s0)
    80004180:	e4843783          	ld	a5,-440(s0)
    80004184:	e8043603          	ld	a2,-384(s0)
    80004188:	00e13023          	sd	a4,0(sp)
    8000418c:	e7043583          	ld	a1,-400(s0)
    80004190:	f2043703          	ld	a4,-224(s0)
    80004194:	00430313          	addi	t1,t1,4
    80004198:	000a0693          	mv	a3,s4
    8000419c:	00400513          	li	a0,4
    800041a0:	ea643423          	sd	t1,-344(s0)
    800041a4:	e5dfd0ef          	jal	ra,80002000 <mm_naive>
    800041a8:	e2843783          	ld	a5,-472(s0)
    800041ac:	e3043703          	ld	a4,-464(s0)
    800041b0:	ea843303          	ld	t1,-344(s0)
    800041b4:	00fa0a33          	add	s4,s4,a5
    800041b8:	00f484b3          	add	s1,s1,a5
    800041bc:	00f90933          	add	s2,s2,a5
    800041c0:	ee043783          	ld	a5,-288(s0)
    800041c4:	00e787b3          	add	a5,a5,a4
    800041c8:	eef43023          	sd	a5,-288(s0)
    800041cc:	e9043783          	ld	a5,-368(s0)
    800041d0:	acf366e3          	bltu	t1,a5,80003c9c <mm_cb+0x1ab4>
    800041d4:	e8043383          	ld	t2,-384(s0)
    800041d8:	e6043703          	ld	a4,-416(s0)
    800041dc:	e9843483          	ld	s1,-360(s0)
    800041e0:	ee843a03          	ld	s4,-280(s0)
    800041e4:	eb843303          	ld	t1,-328(s0)
    800041e8:	009706b3          	add	a3,a4,s1
    800041ec:	00043703          	ld	a4,0(s0)
    800041f0:	e5043883          	ld	a7,-432(s0)
    800041f4:	f2843803          	ld	a6,-216(s0)
    800041f8:	00e13023          	sd	a4,0(sp)
    800041fc:	ed843583          	ld	a1,-296(s0)
    80004200:	f2043703          	ld	a4,-224(s0)
    80004204:	e6843503          	ld	a0,-408(s0)
    80004208:	000a0793          	mv	a5,s4
    8000420c:	01830913          	addi	s2,t1,24
    80004210:	00038613          	mv	a2,t2
    80004214:	eb243c23          	sd	s2,-328(s0)
    80004218:	de9fd0ef          	jal	ra,80002000 <mm_naive>
    8000421c:	e2043783          	ld	a5,-480(s0)
    80004220:	00fa07b3          	add	a5,s4,a5
    80004224:	eef43423          	sd	a5,-280(s0)
    80004228:	0c048793          	addi	a5,s1,192
    8000422c:	e8f43c23          	sd	a5,-360(s0)
    80004230:	f1843783          	ld	a5,-232(s0)
    80004234:	9ef96ce3          	bltu	s2,a5,80003c2c <mm_cb+0x1a44>
    80004238:	00098393          	mv	t2,s3
    8000423c:	f0843703          	ld	a4,-248(s0)
    80004240:	ec043783          	ld	a5,-320(s0)
    80004244:	0c870713          	addi	a4,a4,200
    80004248:	f0e43423          	sd	a4,-248(s0)
    8000424c:	ea043703          	ld	a4,-352(s0)
    80004250:	01978793          	addi	a5,a5,25
    80004254:	ecf43023          	sd	a5,-320(s0)
    80004258:	0c870713          	addi	a4,a4,200
    8000425c:	eae43023          	sd	a4,-352(s0)
    80004260:	ed043703          	ld	a4,-304(s0)
    80004264:	94e7eae3          	bltu	a5,a4,80003bb8 <mm_cb+0x19d0>
    80004268:	00043783          	ld	a5,0(s0)
    8000426c:	00179793          	slli	a5,a5,0x1
    80004270:	e2f43423          	sd	a5,-472(s0)
    80004274:	00043783          	ld	a5,0(s0)
    80004278:	00379793          	slli	a5,a5,0x3
    8000427c:	eef43823          	sd	a5,-272(s0)
    80004280:	f1043783          	ld	a5,-240(s0)
    80004284:	ee079463          	bnez	a5,8000396c <mm_cb+0x1784>
    80004288:	fd4ff06f          	j	80003a5c <mm_cb+0x1874>
    8000428c:	f2843783          	ld	a5,-216(s0)
    80004290:	00179593          	slli	a1,a5,0x1
    80004294:	00379d13          	slli	s10,a5,0x3
    80004298:	a98fe06f          	j	80002530 <mm_cb+0x348>

000000008000429c <mm>:
    8000429c:	e8010113          	addi	sp,sp,-384
    800042a0:	18013e83          	ld	t4,384(sp)
    800042a4:	08a13823          	sd	a0,144(sp)
    800042a8:	16113c23          	sd	ra,376(sp)
    800042ac:	16813823          	sd	s0,368(sp)
    800042b0:	16913423          	sd	s1,360(sp)
    800042b4:	17213023          	sd	s2,352(sp)
    800042b8:	15313c23          	sd	s3,344(sp)
    800042bc:	15413823          	sd	s4,336(sp)
    800042c0:	15513423          	sd	s5,328(sp)
    800042c4:	15613023          	sd	s6,320(sp)
    800042c8:	13713c23          	sd	s7,312(sp)
    800042cc:	13813823          	sd	s8,304(sp)
    800042d0:	13913423          	sd	s9,296(sp)
    800042d4:	13a13023          	sd	s10,288(sp)
    800042d8:	11b13c23          	sd	s11,280(sp)
    800042dc:	10813427          	fsd	fs0,264(sp)
    800042e0:	10913027          	fsd	fs1,256(sp)
    800042e4:	0f213c27          	fsd	fs2,248(sp)
    800042e8:	0f313827          	fsd	fs3,240(sp)
    800042ec:	0f413427          	fsd	fs4,232(sp)
    800042f0:	0f513027          	fsd	fs5,224(sp)
    800042f4:	0d613c27          	fsd	fs6,216(sp)
    800042f8:	0d713827          	fsd	fs7,208(sp)
    800042fc:	0d813427          	fsd	fs8,200(sp)
    80004300:	0d913027          	fsd	fs9,192(sp)
    80004304:	0ba13c27          	fsd	fs10,184(sp)
    80004308:	05d13423          	sd	t4,72(sp)
    8000430c:	08b13c23          	sd	a1,152(sp)
    80004310:	02c13823          	sd	a2,48(sp)
    80004314:	0ad13023          	sd	a3,160(sp)
    80004318:	02e13c23          	sd	a4,56(sp)
    8000431c:	04f13823          	sd	a5,80(sp)
    80004320:	00050313          	mv	t1,a0
    80004324:	05013023          	sd	a6,64(sp)
    80004328:	03000513          	li	a0,48
    8000432c:	0b113423          	sd	a7,168(sp)
    80004330:	64656463          	bltu	a0,t1,80004978 <mm+0x6dc>
    80004334:	00078f13          	mv	t5,a5
    80004338:	03200793          	li	a5,50
    8000433c:	62b7ee63          	bltu	a5,a1,80004978 <mm+0x6dc>
    80004340:	00060e13          	mv	t3,a2
    80004344:	62c56a63          	bltu	a0,a2,80004978 <mm+0x6dc>
    80004348:	00500793          	li	a5,5
    8000434c:	02f5dd33          	divu	s10,a1,a5
    80004350:	003e9513          	slli	a0,t4,0x3
    80004354:	ffc37313          	andi	t1,t1,-4
    80004358:	06a13c23          	sd	a0,120(sp)
    8000435c:	00371413          	slli	s0,a4,0x3
    80004360:	00070513          	mv	a0,a4
    80004364:	04613c23          	sd	t1,88(sp)
    80004368:	002d1713          	slli	a4,s10,0x2
    8000436c:	01a70d33          	add	s10,a4,s10
    80004370:	54030e63          	beqz	t1,800048cc <mm+0x630>
    80004374:	00600d93          	li	s11,6
    80004378:	03be5db3          	divu	s11,t3,s11
    8000437c:	00181a13          	slli	s4,a6,0x1
    80004380:	010a0a33          	add	s4,s4,a6
    80004384:	004a1a93          	slli	s5,s4,0x4
    80004388:	003d1713          	slli	a4,s10,0x3
    8000438c:	00281c13          	slli	s8,a6,0x2
    80004390:	08e13023          	sd	a4,128(sp)
    80004394:	00ef0733          	add	a4,t5,a4
    80004398:	010c0c33          	add	s8,s8,a6
    8000439c:	003e1993          	slli	s3,t3,0x3
    800043a0:	06e13423          	sd	a4,104(sp)
    800043a4:	005e9713          	slli	a4,t4,0x5
    800043a8:	00381493          	slli	s1,a6,0x3
    800043ac:	00481b13          	slli	s6,a6,0x4
    800043b0:	003a1a13          	slli	s4,s4,0x3
    800043b4:	00581b93          	slli	s7,a6,0x5
    800043b8:	003c1c13          	slli	s8,s8,0x3
    800043bc:	00551393          	slli	t2,a0,0x5
    800043c0:	00068c93          	mv	s9,a3
    800043c4:	013689b3          	add	s3,a3,s3
    800043c8:	06e13823          	sd	a4,112(sp)
    800043cc:	00088293          	mv	t0,a7
    800043d0:	00000f93          	li	t6,0
    800043d4:	02f5f7b3          	remu	a5,a1,a5
    800043d8:	001d9913          	slli	s2,s11,0x1
    800043dc:	01b90933          	add	s2,s2,s11
    800043e0:	00491913          	slli	s2,s2,0x4
    800043e4:	01268933          	add	s2,a3,s2
    800043e8:	03ba8db3          	mul	s11,s5,s11
    800043ec:	06f13023          	sd	a5,96(sp)
    800043f0:	460d0863          	beqz	s10,80004860 <mm+0x5c4>
    800043f4:	07813783          	ld	a5,120(sp)
    800043f8:	05013e83          	ld	t4,80(sp)
    800043fc:	00028893          	mv	a7,t0
    80004400:	00f28833          	add	a6,t0,a5
    80004404:	00f80533          	add	a0,a6,a5
    80004408:	00f50333          	add	t1,a0,a5
    8000440c:	00000f13          	li	t5,0
    80004410:	0008be87          	fld	ft9,0(a7)
    80004414:	0088ba87          	fld	fs5,8(a7)
    80004418:	0108ba07          	fld	fs4,16(a7)
    8000441c:	0188b987          	fld	fs3,24(a7)
    80004420:	0208b007          	fld	ft0,32(a7)
    80004424:	00083907          	fld	fs2,0(a6)
    80004428:	00883487          	fld	fs1,8(a6)
    8000442c:	01083407          	fld	fs0,16(a6)
    80004430:	01883f87          	fld	ft11,24(a6)
    80004434:	02083587          	fld	fa1,32(a6)
    80004438:	00053207          	fld	ft4,0(a0)
    8000443c:	00853f07          	fld	ft10,8(a0)
    80004440:	01053e07          	fld	ft8,16(a0)
    80004444:	01853287          	fld	ft5,24(a0)
    80004448:	02053707          	fld	fa4,32(a0)
    8000444c:	00033507          	fld	fa0,0(t1)
    80004450:	00833107          	fld	ft2,8(t1)
    80004454:	01033087          	fld	ft1,16(t1)
    80004458:	01833607          	fld	fa2,24(t1)
    8000445c:	02033787          	fld	fa5,32(t1)
    80004460:	000e8793          	mv	a5,t4
    80004464:	2f2cfc63          	bgeu	s9,s2,8000475c <mm+0x4c0>
    80004468:	008c8633          	add	a2,s9,s0
    8000446c:	008606b3          	add	a3,a2,s0
    80004470:	008685b3          	add	a1,a3,s0
    80004474:	000c8713          	mv	a4,s9
    80004478:	00073c07          	fld	fs8,0(a4)
    8000447c:	00063687          	fld	fa3,0(a2)
    80004480:	0006bb87          	fld	fs7,0(a3)
    80004484:	0005b387          	fld	ft7,0(a1)
    80004488:	0007bb07          	fld	fs6,0(a5)
    8000448c:	0087b887          	fld	fa7,8(a5)
    80004490:	0107b807          	fld	fa6,16(a5)
    80004494:	0187b187          	fld	ft3,24(a5)
    80004498:	0207b307          	fld	ft6,32(a5)
    8000449c:	eb6c7ec3          	fmadd.d	ft9,fs8,fs6,ft9
    800044a0:	ab1c7ac3          	fmadd.d	fs5,fs8,fa7,fs5
    800044a4:	a30c7a43          	fmadd.d	fs4,fs8,fa6,fs4
    800044a8:	9a3c79c3          	fmadd.d	fs3,fs8,ft3,fs3
    800044ac:	026c7043          	fmadd.d	ft0,fs8,ft6,ft0
    800044b0:	9366f943          	fmadd.d	fs2,fa3,fs6,fs2
    800044b4:	4b16f4c3          	fmadd.d	fs1,fa3,fa7,fs1
    800044b8:	4306f443          	fmadd.d	fs0,fa3,fa6,fs0
    800044bc:	fa36ffc3          	fmadd.d	ft11,fa3,ft3,ft11
    800044c0:	5a66f5c3          	fmadd.d	fa1,fa3,ft6,fa1
    800044c4:	236bf243          	fmadd.d	ft4,fs7,fs6,ft4
    800044c8:	f31bff43          	fmadd.d	ft10,fs7,fa7,ft10
    800044cc:	e30bfe43          	fmadd.d	ft8,fs7,fa6,ft8
    800044d0:	2a3bf2c3          	fmadd.d	ft5,fs7,ft3,ft5
    800044d4:	726bf743          	fmadd.d	fa4,fs7,ft6,fa4
    800044d8:	5363f543          	fmadd.d	fa0,ft7,fs6,fa0
    800044dc:	1313f143          	fmadd.d	ft2,ft7,fa7,ft2
    800044e0:	0b03f0c3          	fmadd.d	ft1,ft7,fa6,ft1
    800044e4:	6233f643          	fmadd.d	fa2,ft7,ft3,fa2
    800044e8:	7a63f3c3          	fmadd.d	ft7,ft7,ft6,fa5
    800044ec:	00f48e33          	add	t3,s1,a5
    800044f0:	00873c07          	fld	fs8,8(a4)
    800044f4:	00863687          	fld	fa3,8(a2)
    800044f8:	0086b307          	fld	ft6,8(a3)
    800044fc:	0085b787          	fld	fa5,8(a1)
    80004500:	000e3b87          	fld	fs7,0(t3)
    80004504:	008e3b07          	fld	fs6,8(t3)
    80004508:	010e3887          	fld	fa7,16(t3)
    8000450c:	018e3807          	fld	fa6,24(t3)
    80004510:	020e3187          	fld	ft3,32(t3)
    80004514:	eb7c7ec3          	fmadd.d	ft9,fs8,fs7,ft9
    80004518:	ab6c7ac3          	fmadd.d	fs5,fs8,fs6,fs5
    8000451c:	72337743          	fmadd.d	fa4,ft6,ft3,fa4
    80004520:	a31c7a43          	fmadd.d	fs4,fs8,fa7,fs4
    80004524:	9b0c79c3          	fmadd.d	fs3,fs8,fa6,fs3
    80004528:	023c7043          	fmadd.d	ft0,fs8,ft3,ft0
    8000452c:	9376f943          	fmadd.d	fs2,fa3,fs7,fs2
    80004530:	4b66f4c3          	fmadd.d	fs1,fa3,fs6,fs1
    80004534:	4316f443          	fmadd.d	fs0,fa3,fa7,fs0
    80004538:	fb06ffc3          	fmadd.d	ft11,fa3,fa6,ft11
    8000453c:	5a36f5c3          	fmadd.d	fa1,fa3,ft3,fa1
    80004540:	23737243          	fmadd.d	ft4,ft6,fs7,ft4
    80004544:	f3637f43          	fmadd.d	ft10,ft6,fs6,ft10
    80004548:	e3137e43          	fmadd.d	ft8,ft6,fa7,ft8
    8000454c:	2b0372c3          	fmadd.d	ft5,ft6,fa6,ft5
    80004550:	5377f543          	fmadd.d	fa0,fa5,fs7,fa0
    80004554:	1367f143          	fmadd.d	ft2,fa5,fs6,ft2
    80004558:	0b17f0c3          	fmadd.d	ft1,fa5,fa7,ft1
    8000455c:	6307f643          	fmadd.d	fa2,fa5,fa6,fa2
    80004560:	3a37f7c3          	fmadd.d	fa5,fa5,ft3,ft7
    80004564:	00fb0e33          	add	t3,s6,a5
    80004568:	01073c07          	fld	fs8,16(a4)
    8000456c:	01063687          	fld	fa3,16(a2)
    80004570:	0106b307          	fld	ft6,16(a3)
    80004574:	0105b387          	fld	ft7,16(a1)
    80004578:	000e3b87          	fld	fs7,0(t3)
    8000457c:	008e3887          	fld	fa7,8(t3)
    80004580:	010e3807          	fld	fa6,16(t3)
    80004584:	018e3187          	fld	ft3,24(t3)
    80004588:	020e3b07          	fld	fs6,32(t3)
    8000458c:	eb7c7ec3          	fmadd.d	ft9,fs8,fs7,ft9
    80004590:	ab1c7ac3          	fmadd.d	fs5,fs8,fa7,fs5
    80004594:	a30c7a43          	fmadd.d	fs4,fs8,fa6,fs4
    80004598:	9a3c79c3          	fmadd.d	fs3,fs8,ft3,fs3
    8000459c:	036c7043          	fmadd.d	ft0,fs8,fs6,ft0
    800045a0:	9376f943          	fmadd.d	fs2,fa3,fs7,fs2
    800045a4:	4b16f4c3          	fmadd.d	fs1,fa3,fa7,fs1
    800045a8:	4306f443          	fmadd.d	fs0,fa3,fa6,fs0
    800045ac:	fa36ffc3          	fmadd.d	ft11,fa3,ft3,ft11
    800045b0:	5b66f5c3          	fmadd.d	fa1,fa3,fs6,fa1
    800045b4:	23737243          	fmadd.d	ft4,ft6,fs7,ft4
    800045b8:	f3137f43          	fmadd.d	ft10,ft6,fa7,ft10
    800045bc:	e3037e43          	fmadd.d	ft8,ft6,fa6,ft8
    800045c0:	2a3372c3          	fmadd.d	ft5,ft6,ft3,ft5
    800045c4:	5373f543          	fmadd.d	fa0,ft7,fs7,fa0
    800045c8:	73637343          	fmadd.d	ft6,ft6,fs6,fa4
    800045cc:	1313f143          	fmadd.d	ft2,ft7,fa7,ft2
    800045d0:	0b03f0c3          	fmadd.d	ft1,ft7,fa6,ft1
    800045d4:	6233f643          	fmadd.d	fa2,ft7,ft3,fa2
    800045d8:	7b63f7c3          	fmadd.d	fa5,ft7,fs6,fa5
    800045dc:	01478e33          	add	t3,a5,s4
    800045e0:	01873c07          	fld	fs8,24(a4)
    800045e4:	000e3b07          	fld	fs6,0(t3)
    800045e8:	008e3887          	fld	fa7,8(t3)
    800045ec:	018e3187          	fld	ft3,24(t3)
    800045f0:	010e3807          	fld	fa6,16(t3)
    800045f4:	020e3387          	fld	ft7,32(t3)
    800045f8:	01863687          	fld	fa3,24(a2)
    800045fc:	0186b707          	fld	fa4,24(a3)
    80004600:	0185bb87          	fld	fs7,24(a1)
    80004604:	5a76f5c3          	fmadd.d	fa1,fa3,ft7,fa1
    80004608:	eb6c7ec3          	fmadd.d	ft9,fs8,fs6,ft9
    8000460c:	536bf543          	fmadd.d	fa0,fs7,fs6,fa0
    80004610:	131bf143          	fmadd.d	ft2,fs7,fa7,ft2
    80004614:	623bf643          	fmadd.d	fa2,fs7,ft3,fa2
    80004618:	7a7bf7c3          	fmadd.d	fa5,fs7,ft7,fa5
    8000461c:	ab1c7ac3          	fmadd.d	fs5,fs8,fa7,fs5
    80004620:	9a3c79c3          	fmadd.d	fs3,fs8,ft3,fs3
    80004624:	027c7043          	fmadd.d	ft0,fs8,ft7,ft0
    80004628:	9366f943          	fmadd.d	fs2,fa3,fs6,fs2
    8000462c:	4b16f4c3          	fmadd.d	fs1,fa3,fa7,fs1
    80004630:	fa36ffc3          	fmadd.d	ft11,fa3,ft3,ft11
    80004634:	23677243          	fmadd.d	ft4,fa4,fs6,ft4
    80004638:	f3177f43          	fmadd.d	ft10,fa4,fa7,ft10
    8000463c:	2a3772c3          	fmadd.d	ft5,fa4,ft3,ft5
    80004640:	32777343          	fmadd.d	ft6,fa4,ft7,ft6
    80004644:	0b0bf0c3          	fmadd.d	ft1,fs7,fa6,ft1
    80004648:	a30c7a43          	fmadd.d	fs4,fs8,fa6,fs4
    8000464c:	4306f443          	fmadd.d	fs0,fa3,fa6,fs0
    80004650:	e3077e43          	fmadd.d	ft8,fa4,fa6,ft8
    80004654:	00fb8e33          	add	t3,s7,a5
    80004658:	02073187          	fld	ft3,32(a4)
    8000465c:	0206b707          	fld	fa4,32(a3)
    80004660:	02063687          	fld	fa3,32(a2)
    80004664:	0205bd07          	fld	fs10,32(a1)
    80004668:	000e3b07          	fld	fs6,0(t3)
    8000466c:	008e3887          	fld	fa7,8(t3)
    80004670:	010e3c87          	fld	fs9,16(t3)
    80004674:	018e3c07          	fld	fs8,24(t3)
    80004678:	020e3387          	fld	ft7,32(t3)
    8000467c:	eb61fec3          	fmadd.d	ft9,ft3,fs6,ft9
    80004680:	ab11fac3          	fmadd.d	fs5,ft3,fa7,fs5
    80004684:	a391fa43          	fmadd.d	fs4,ft3,fs9,fs4
    80004688:	9b81f9c3          	fmadd.d	fs3,ft3,fs8,fs3
    8000468c:	0271f043          	fmadd.d	ft0,ft3,ft7,ft0
    80004690:	9366f943          	fmadd.d	fs2,fa3,fs6,fs2
    80004694:	4b16f4c3          	fmadd.d	fs1,fa3,fa7,fs1
    80004698:	4396f443          	fmadd.d	fs0,fa3,fs9,fs0
    8000469c:	fb86ffc3          	fmadd.d	ft11,fa3,fs8,ft11
    800046a0:	23677243          	fmadd.d	ft4,fa4,fs6,ft4
    800046a4:	5a76f6c3          	fmadd.d	fa3,fa3,ft7,fa1
    800046a8:	f3177f43          	fmadd.d	ft10,fa4,fa7,ft10
    800046ac:	e3977e43          	fmadd.d	ft8,fa4,fs9,ft8
    800046b0:	2b8772c3          	fmadd.d	ft5,fa4,fs8,ft5
    800046b4:	32777343          	fmadd.d	ft6,fa4,ft7,ft6
    800046b8:	536d7b43          	fmadd.d	fs6,fs10,fs6,fa0
    800046bc:	131d78c3          	fmadd.d	fa7,fs10,fa7,ft2
    800046c0:	0b9d7cc3          	fmadd.d	fs9,fs10,fs9,ft1
    800046c4:	638d7c43          	fmadd.d	fs8,fs10,fs8,fa2
    800046c8:	7a7d73c3          	fmadd.d	ft7,fs10,ft7,fa5
    800046cc:	01878e33          	add	t3,a5,s8
    800046d0:	02873b87          	fld	fs7,40(a4)
    800046d4:	02863587          	fld	fa1,40(a2)
    800046d8:	0286b707          	fld	fa4,40(a3)
    800046dc:	0285b787          	fld	fa5,40(a1)
    800046e0:	000e3507          	fld	fa0,0(t3)
    800046e4:	008e3107          	fld	ft2,8(t3)
    800046e8:	010e3087          	fld	ft1,16(t3)
    800046ec:	018e3607          	fld	fa2,24(t3)
    800046f0:	020e3187          	fld	ft3,32(t3)
    800046f4:	03070713          	addi	a4,a4,48
    800046f8:	92a5f943          	fmadd.d	fs2,fa1,fa0,fs2
    800046fc:	4a25f4c3          	fmadd.d	fs1,fa1,ft2,fs1
    80004700:	4215f443          	fmadd.d	fs0,fa1,ft1,fs0
    80004704:	fac5ffc3          	fmadd.d	ft11,fa1,fa2,ft11
    80004708:	22a77243          	fmadd.d	ft4,fa4,fa0,ft4
    8000470c:	f2277f43          	fmadd.d	ft10,fa4,ft2,ft10
    80004710:	e2177e43          	fmadd.d	ft8,fa4,ft1,ft8
    80004714:	2ac772c3          	fmadd.d	ft5,fa4,fa2,ft5
    80004718:	eaabfec3          	fmadd.d	ft9,fs7,fa0,ft9
    8000471c:	aa2bfac3          	fmadd.d	fs5,fs7,ft2,fs5
    80004720:	a21bfa43          	fmadd.d	fs4,fs7,ft1,fs4
    80004724:	9acbf9c3          	fmadd.d	fs3,fs7,fa2,fs3
    80004728:	b2a7f543          	fmadd.d	fa0,fa5,fa0,fs6
    8000472c:	8a27f143          	fmadd.d	ft2,fa5,ft2,fa7
    80004730:	ca17f0c3          	fmadd.d	ft1,fa5,ft1,fs9
    80004734:	c2c7f643          	fmadd.d	fa2,fa5,fa2,fs8
    80004738:	023bf043          	fmadd.d	ft0,fs7,ft3,ft0
    8000473c:	6a35f5c3          	fmadd.d	fa1,fa1,ft3,fa3
    80004740:	32377743          	fmadd.d	fa4,fa4,ft3,ft6
    80004744:	3a37f7c3          	fmadd.d	fa5,fa5,ft3,ft7
    80004748:	015787b3          	add	a5,a5,s5
    8000474c:	03060613          	addi	a2,a2,48
    80004750:	03068693          	addi	a3,a3,48
    80004754:	03058593          	addi	a1,a1,48
    80004758:	d32760e3          	bltu	a4,s2,80004478 <mm+0x1dc>
    8000475c:	01dd87b3          	add	a5,s11,t4
    80004760:	09397a63          	bgeu	s2,s3,800047f4 <mm+0x558>
    80004764:	00090713          	mv	a4,s2
    80004768:	008705b3          	add	a1,a4,s0
    8000476c:	00858633          	add	a2,a1,s0
    80004770:	008606b3          	add	a3,a2,s0
    80004774:	00073387          	fld	ft7,0(a4)
    80004778:	0007bc07          	fld	fs8,0(a5)
    8000477c:	0087bb87          	fld	fs7,8(a5)
    80004780:	0107bb07          	fld	fs6,16(a5)
    80004784:	0187b887          	fld	fa7,24(a5)
    80004788:	0207b807          	fld	fa6,32(a5)
    8000478c:	0005b307          	fld	ft6,0(a1)
    80004790:	00063187          	fld	ft3,0(a2)
    80004794:	0006b687          	fld	fa3,0(a3)
    80004798:	00870713          	addi	a4,a4,8
    8000479c:	eb83fec3          	fmadd.d	ft9,ft7,fs8,ft9
    800047a0:	ab73fac3          	fmadd.d	fs5,ft7,fs7,fs5
    800047a4:	a363fa43          	fmadd.d	fs4,ft7,fs6,fs4
    800047a8:	9b13f9c3          	fmadd.d	fs3,ft7,fa7,fs3
    800047ac:	0303f043          	fmadd.d	ft0,ft7,fa6,ft0
    800047b0:	93837943          	fmadd.d	fs2,ft6,fs8,fs2
    800047b4:	4b7374c3          	fmadd.d	fs1,ft6,fs7,fs1
    800047b8:	43637443          	fmadd.d	fs0,ft6,fs6,fs0
    800047bc:	fb137fc3          	fmadd.d	ft11,ft6,fa7,ft11
    800047c0:	5b0375c3          	fmadd.d	fa1,ft6,fa6,fa1
    800047c4:	2381f243          	fmadd.d	ft4,ft3,fs8,ft4
    800047c8:	f371ff43          	fmadd.d	ft10,ft3,fs7,ft10
    800047cc:	e361fe43          	fmadd.d	ft8,ft3,fs6,ft8
    800047d0:	2b11f2c3          	fmadd.d	ft5,ft3,fa7,ft5
    800047d4:	7301f743          	fmadd.d	fa4,ft3,fa6,fa4
    800047d8:	5386f543          	fmadd.d	fa0,fa3,fs8,fa0
    800047dc:	1376f143          	fmadd.d	ft2,fa3,fs7,ft2
    800047e0:	0b66f0c3          	fmadd.d	ft1,fa3,fs6,ft1
    800047e4:	6316f643          	fmadd.d	fa2,fa3,fa7,fa2
    800047e8:	7b06f7c3          	fmadd.d	fa5,fa3,fa6,fa5
    800047ec:	009787b3          	add	a5,a5,s1
    800047f0:	f7376ce3          	bltu	a4,s3,80004768 <mm+0x4cc>
    800047f4:	01d8b027          	fsd	ft9,0(a7)
    800047f8:	0158b427          	fsd	fs5,8(a7)
    800047fc:	0148b827          	fsd	fs4,16(a7)
    80004800:	0138bc27          	fsd	fs3,24(a7)
    80004804:	0208b027          	fsd	ft0,32(a7)
    80004808:	01283027          	fsd	fs2,0(a6)
    8000480c:	00983427          	fsd	fs1,8(a6)
    80004810:	00883827          	fsd	fs0,16(a6)
    80004814:	01f83c27          	fsd	ft11,24(a6)
    80004818:	02b83027          	fsd	fa1,32(a6)
    8000481c:	00453027          	fsd	ft4,0(a0)
    80004820:	01e53427          	fsd	ft10,8(a0)
    80004824:	01c53827          	fsd	ft8,16(a0)
    80004828:	00553c27          	fsd	ft5,24(a0)
    8000482c:	02e53027          	fsd	fa4,32(a0)
    80004830:	00a33027          	fsd	fa0,0(t1)
    80004834:	00233427          	fsd	ft2,8(t1)
    80004838:	00133827          	fsd	ft1,16(t1)
    8000483c:	00c33c27          	fsd	fa2,24(t1)
    80004840:	02f33027          	fsd	fa5,32(t1)
    80004844:	005f0f13          	addi	t5,t5,5
    80004848:	02888893          	addi	a7,a7,40
    8000484c:	02880813          	addi	a6,a6,40
    80004850:	02850513          	addi	a0,a0,40
    80004854:	02830313          	addi	t1,t1,40
    80004858:	028e8e93          	addi	t4,t4,40
    8000485c:	bbaf6ae3          	bltu	t5,s10,80004410 <mm+0x174>
    80004860:	08013783          	ld	a5,128(sp)
    80004864:	04013803          	ld	a6,64(sp)
    80004868:	03813703          	ld	a4,56(sp)
    8000486c:	005788b3          	add	a7,a5,t0
    80004870:	04813783          	ld	a5,72(sp)
    80004874:	03013603          	ld	a2,48(sp)
    80004878:	06013583          	ld	a1,96(sp)
    8000487c:	00f13023          	sd	a5,0(sp)
    80004880:	06813783          	ld	a5,104(sp)
    80004884:	004f8f93          	addi	t6,t6,4
    80004888:	000c8693          	mv	a3,s9
    8000488c:	00400513          	li	a0,4
    80004890:	02713423          	sd	t2,40(sp)
    80004894:	02513023          	sd	t0,32(sp)
    80004898:	01f13c23          	sd	t6,24(sp)
    8000489c:	09f13423          	sd	t6,136(sp)
    800048a0:	f60fd0ef          	jal	ra,80002000 <mm_naive>
    800048a4:	07013783          	ld	a5,112(sp)
    800048a8:	02013283          	ld	t0,32(sp)
    800048ac:	02813383          	ld	t2,40(sp)
    800048b0:	01813f83          	ld	t6,24(sp)
    800048b4:	00f282b3          	add	t0,t0,a5
    800048b8:	05813783          	ld	a5,88(sp)
    800048bc:	007c8cb3          	add	s9,s9,t2
    800048c0:	00790933          	add	s2,s2,t2
    800048c4:	007989b3          	add	s3,s3,t2
    800048c8:	b2ffe4e3          	bltu	t6,a5,800043f0 <mm+0x154>
    800048cc:	05813683          	ld	a3,88(sp)
    800048d0:	07813783          	ld	a5,120(sp)
    800048d4:	09013503          	ld	a0,144(sp)
    800048d8:	0a813303          	ld	t1,168(sp)
    800048dc:	02f688b3          	mul	a7,a3,a5
    800048e0:	40d50533          	sub	a0,a0,a3
    800048e4:	04813783          	ld	a5,72(sp)
    800048e8:	04013803          	ld	a6,64(sp)
    800048ec:	03813703          	ld	a4,56(sp)
    800048f0:	18f13023          	sd	a5,384(sp)
    800048f4:	03013603          	ld	a2,48(sp)
    800048f8:	05013783          	ld	a5,80(sp)
    800048fc:	09813583          	ld	a1,152(sp)
    80004900:	17813083          	ld	ra,376(sp)
    80004904:	028686b3          	mul	a3,a3,s0
    80004908:	011308b3          	add	a7,t1,a7
    8000490c:	17013403          	ld	s0,368(sp)
    80004910:	0a013303          	ld	t1,160(sp)
    80004914:	16813483          	ld	s1,360(sp)
    80004918:	16013903          	ld	s2,352(sp)
    8000491c:	15813983          	ld	s3,344(sp)
    80004920:	15013a03          	ld	s4,336(sp)
    80004924:	14813a83          	ld	s5,328(sp)
    80004928:	14013b03          	ld	s6,320(sp)
    8000492c:	13813b83          	ld	s7,312(sp)
    80004930:	13013c03          	ld	s8,304(sp)
    80004934:	12813c83          	ld	s9,296(sp)
    80004938:	12013d03          	ld	s10,288(sp)
    8000493c:	11813d83          	ld	s11,280(sp)
    80004940:	10813407          	fld	fs0,264(sp)
    80004944:	10013487          	fld	fs1,256(sp)
    80004948:	0f813907          	fld	fs2,248(sp)
    8000494c:	0f013987          	fld	fs3,240(sp)
    80004950:	0e813a07          	fld	fs4,232(sp)
    80004954:	0e013a87          	fld	fs5,224(sp)
    80004958:	0d813b07          	fld	fs6,216(sp)
    8000495c:	0d013b87          	fld	fs7,208(sp)
    80004960:	0c813c07          	fld	fs8,200(sp)
    80004964:	0c013c87          	fld	fs9,192(sp)
    80004968:	0b813d07          	fld	fs10,184(sp)
    8000496c:	00d306b3          	add	a3,t1,a3
    80004970:	18010113          	addi	sp,sp,384
    80004974:	e8cfd06f          	j	80002000 <mm_naive>
    80004978:	04813783          	ld	a5,72(sp)
    8000497c:	17013403          	ld	s0,368(sp)
    80004980:	0a813883          	ld	a7,168(sp)
    80004984:	18f13023          	sd	a5,384(sp)
    80004988:	04013803          	ld	a6,64(sp)
    8000498c:	05013783          	ld	a5,80(sp)
    80004990:	03813703          	ld	a4,56(sp)
    80004994:	0a013683          	ld	a3,160(sp)
    80004998:	03013603          	ld	a2,48(sp)
    8000499c:	09813583          	ld	a1,152(sp)
    800049a0:	09013503          	ld	a0,144(sp)
    800049a4:	17813083          	ld	ra,376(sp)
    800049a8:	16813483          	ld	s1,360(sp)
    800049ac:	16013903          	ld	s2,352(sp)
    800049b0:	15813983          	ld	s3,344(sp)
    800049b4:	15013a03          	ld	s4,336(sp)
    800049b8:	14813a83          	ld	s5,328(sp)
    800049bc:	14013b03          	ld	s6,320(sp)
    800049c0:	13813b83          	ld	s7,312(sp)
    800049c4:	13013c03          	ld	s8,304(sp)
    800049c8:	12813c83          	ld	s9,296(sp)
    800049cc:	12013d03          	ld	s10,288(sp)
    800049d0:	11813d83          	ld	s11,280(sp)
    800049d4:	10813407          	fld	fs0,264(sp)
    800049d8:	10013487          	fld	fs1,256(sp)
    800049dc:	0f813907          	fld	fs2,248(sp)
    800049e0:	0f013987          	fld	fs3,240(sp)
    800049e4:	0e813a07          	fld	fs4,232(sp)
    800049e8:	0e013a87          	fld	fs5,224(sp)
    800049ec:	0d813b07          	fld	fs6,216(sp)
    800049f0:	0d013b87          	fld	fs7,208(sp)
    800049f4:	0c813c07          	fld	fs8,200(sp)
    800049f8:	0c013c87          	fld	fs9,192(sp)
    800049fc:	0b813d07          	fld	fs10,184(sp)
    80004a00:	18010113          	addi	sp,sp,384
    80004a04:	fe4fd06f          	j	800021e8 <mm_cb>

0000000080004a08 <barrier>:
    80004a08:	0ff0000f          	fence
    80004a0c:	00022703          	lw	a4,0(tp) # 0 <threadsense.3635>
    80004a10:	a5018693          	addi	a3,gp,-1456 # 80005b70 <count.3634>
    80004a14:	00100613          	li	a2,1
    80004a18:	00173713          	seqz	a4,a4
    80004a1c:	00e22023          	sw	a4,0(tp) # 0 <threadsense.3635>
    80004a20:	0f50000f          	fence	iorw,ow
    80004a24:	04c6a72f          	amoadd.w.aq	a4,a2,(a3)
    80004a28:	fff5051b          	addiw	a0,a0,-1
    80004a2c:	0007071b          	sext.w	a4,a4
    80004a30:	02e50063          	beq	a0,a4,80004a50 <barrier+0x48>
    80004a34:	00022683          	lw	a3,0(tp) # 0 <threadsense.3635>
    80004a38:	a4c18713          	addi	a4,gp,-1460 # 80005b6c <sense.3633>
    80004a3c:	00072783          	lw	a5,0(a4)
    80004a40:	0007879b          	sext.w	a5,a5
    80004a44:	fed79ce3          	bne	a5,a3,80004a3c <barrier+0x34>
    80004a48:	0ff0000f          	fence
    80004a4c:	00008067          	ret
    80004a50:	00022783          	lw	a5,0(tp) # 0 <threadsense.3635>
    80004a54:	a401a823          	sw	zero,-1456(gp) # 80005b70 <count.3634>
    80004a58:	a4f1a623          	sw	a5,-1460(gp) # 80005b6c <sense.3633>
    80004a5c:	fedff06f          	j	80004a48 <barrier+0x40>

0000000080004a60 <thread_entry>:
    80004a60:	f8010113          	addi	sp,sp,-128
    80004a64:	fffff7b7          	lui	a5,0xfffff
    80004a68:	06813823          	sd	s0,112(sp)
    80004a6c:	06913423          	sd	s1,104(sp)
    80004a70:	07213023          	sd	s2,96(sp)
    80004a74:	05313c23          	sd	s3,88(sp)
    80004a78:	05413823          	sd	s4,80(sp)
    80004a7c:	05513423          	sd	s5,72(sp)
    80004a80:	05613023          	sd	s6,64(sp)
    80004a84:	06113c23          	sd	ra,120(sp)
    80004a88:	03713c23          	sd	s7,56(sp)
    80004a8c:	03813823          	sd	s8,48(sp)
    80004a90:	03913423          	sd	s9,40(sp)
    80004a94:	03a13023          	sd	s10,32(sp)
    80004a98:	01b13c23          	sd	s11,24(sp)
    80004a9c:	08010413          	addi	s0,sp,128
    80004aa0:	e0078713          	addi	a4,a5,-512 # ffffffffffffee00 <__global_pointer$+0xffffffff7fff8ce0>
    80004aa4:	d4078793          	addi	a5,a5,-704
    80004aa8:	00e10133          	add	sp,sp,a4
    80004aac:	01010a93          	addi	s5,sp,16
    80004ab0:	00f10133          	add	sp,sp,a5
    80004ab4:	01010913          	addi	s2,sp,16
    80004ab8:	00001837          	lui	a6,0x1
    80004abc:	00f10133          	add	sp,sp,a5
    80004ac0:	37ab77b7          	lui	a5,0x37ab7
    80004ac4:	00058a13          	mv	s4,a1
    80004ac8:	2c080813          	addi	a6,a6,704 # 12c0 <buflen.2978+0x1240>
    80004acc:	00279793          	slli	a5,a5,0x2
    80004ad0:	00100593          	li	a1,1
    80004ad4:	00050993          	mv	s3,a0
    80004ad8:	01010493          	addi	s1,sp,16
    80004adc:	000a8b13          	mv	s6,s5
    80004ae0:	0c0a8513          	addi	a0,s5,192
    80004ae4:	010a8833          	add	a6,s5,a6
    80004ae8:	eef78793          	addi	a5,a5,-273 # 37ab6eef <buflen.2978+0x37ab6e6f>
    80004aec:	03e59593          	slli	a1,a1,0x3e
    80004af0:	f4050613          	addi	a2,a0,-192
    80004af4:	0017d693          	srli	a3,a5,0x1
    80004af8:	00f6c733          	xor	a4,a3,a5
    80004afc:	03e71713          	slli	a4,a4,0x3e
    80004b00:	00b77733          	and	a4,a4,a1
    80004b04:	00d767b3          	or	a5,a4,a3
    80004b08:	0017d693          	srli	a3,a5,0x1
    80004b0c:	00f6c733          	xor	a4,a3,a5
    80004b10:	03e71713          	slli	a4,a4,0x3e
    80004b14:	00b77733          	and	a4,a4,a1
    80004b18:	d227f7d3          	fcvt.d.l	fa5,a5
    80004b1c:	00d767b3          	or	a5,a4,a3
    80004b20:	0017d693          	srli	a3,a5,0x1
    80004b24:	00f6c733          	xor	a4,a3,a5
    80004b28:	03e71713          	slli	a4,a4,0x3e
    80004b2c:	00b77733          	and	a4,a4,a1
    80004b30:	00f63027          	fsd	fa5,0(a2)
    80004b34:	d227f7d3          	fcvt.d.l	fa5,a5
    80004b38:	00d767b3          	or	a5,a4,a3
    80004b3c:	0017d693          	srli	a3,a5,0x1
    80004b40:	00f6c733          	xor	a4,a3,a5
    80004b44:	03e71713          	slli	a4,a4,0x3e
    80004b48:	00b77733          	and	a4,a4,a1
    80004b4c:	00f63427          	fsd	fa5,8(a2)
    80004b50:	d227f7d3          	fcvt.d.l	fa5,a5
    80004b54:	00d767b3          	or	a5,a4,a3
    80004b58:	0017d693          	srli	a3,a5,0x1
    80004b5c:	00f6c733          	xor	a4,a3,a5
    80004b60:	03e71713          	slli	a4,a4,0x3e
    80004b64:	00b77733          	and	a4,a4,a1
    80004b68:	00f63827          	fsd	fa5,16(a2)
    80004b6c:	d227f7d3          	fcvt.d.l	fa5,a5
    80004b70:	00d767b3          	or	a5,a4,a3
    80004b74:	0017d693          	srli	a3,a5,0x1
    80004b78:	00f6c733          	xor	a4,a3,a5
    80004b7c:	03e71713          	slli	a4,a4,0x3e
    80004b80:	00b77733          	and	a4,a4,a1
    80004b84:	00f63c27          	fsd	fa5,24(a2)
    80004b88:	d227f7d3          	fcvt.d.l	fa5,a5
    80004b8c:	00d767b3          	or	a5,a4,a3
    80004b90:	0017d693          	srli	a3,a5,0x1
    80004b94:	00f6c733          	xor	a4,a3,a5
    80004b98:	03e71713          	slli	a4,a4,0x3e
    80004b9c:	00b77733          	and	a4,a4,a1
    80004ba0:	02f63027          	fsd	fa5,32(a2)
    80004ba4:	d227f7d3          	fcvt.d.l	fa5,a5
    80004ba8:	00d767b3          	or	a5,a4,a3
    80004bac:	0017d693          	srli	a3,a5,0x1
    80004bb0:	00f6c733          	xor	a4,a3,a5
    80004bb4:	02f63427          	fsd	fa5,40(a2)
    80004bb8:	03e71713          	slli	a4,a4,0x3e
    80004bbc:	d227f7d3          	fcvt.d.l	fa5,a5
    80004bc0:	00b77733          	and	a4,a4,a1
    80004bc4:	00d767b3          	or	a5,a4,a3
    80004bc8:	02f63827          	fsd	fa5,48(a2)
    80004bcc:	d227f7d3          	fcvt.d.l	fa5,a5
    80004bd0:	00860713          	addi	a4,a2,8
    80004bd4:	04060613          	addi	a2,a2,64
    80004bd8:	02f73827          	fsd	fa5,48(a4)
    80004bdc:	f0c51ce3          	bne	a0,a2,80004af4 <thread_entry+0x94>
    80004be0:	0f870513          	addi	a0,a4,248
    80004be4:	f0a816e3          	bne	a6,a0,80004af0 <thread_entry+0x90>
    80004be8:	00001837          	lui	a6,0x1
    80004bec:	38880813          	addi	a6,a6,904 # 1388 <buflen.2978+0x1308>
    80004bf0:	00100593          	li	a1,1
    80004bf4:	0c890513          	addi	a0,s2,200
    80004bf8:	01090833          	add	a6,s2,a6
    80004bfc:	03e59593          	slli	a1,a1,0x3e
    80004c00:	0017d693          	srli	a3,a5,0x1
    80004c04:	00f6c733          	xor	a4,a3,a5
    80004c08:	03e71713          	slli	a4,a4,0x3e
    80004c0c:	00b77733          	and	a4,a4,a1
    80004c10:	00d767b3          	or	a5,a4,a3
    80004c14:	d227f7d3          	fcvt.d.l	fa5,a5
    80004c18:	f4050613          	addi	a2,a0,-192
    80004c1c:	f2f53c27          	fsd	fa5,-200(a0)
    80004c20:	0017d693          	srli	a3,a5,0x1
    80004c24:	00f6c733          	xor	a4,a3,a5
    80004c28:	03e71713          	slli	a4,a4,0x3e
    80004c2c:	00b77733          	and	a4,a4,a1
    80004c30:	00d767b3          	or	a5,a4,a3
    80004c34:	0017d693          	srli	a3,a5,0x1
    80004c38:	00f6c733          	xor	a4,a3,a5
    80004c3c:	03e71713          	slli	a4,a4,0x3e
    80004c40:	00b77733          	and	a4,a4,a1
    80004c44:	d227f7d3          	fcvt.d.l	fa5,a5
    80004c48:	00d767b3          	or	a5,a4,a3
    80004c4c:	0017d693          	srli	a3,a5,0x1
    80004c50:	00f6c733          	xor	a4,a3,a5
    80004c54:	03e71713          	slli	a4,a4,0x3e
    80004c58:	00b77733          	and	a4,a4,a1
    80004c5c:	00f63027          	fsd	fa5,0(a2)
    80004c60:	d227f7d3          	fcvt.d.l	fa5,a5
    80004c64:	00d767b3          	or	a5,a4,a3
    80004c68:	0017d693          	srli	a3,a5,0x1
    80004c6c:	00f6c733          	xor	a4,a3,a5
    80004c70:	03e71713          	slli	a4,a4,0x3e
    80004c74:	00b77733          	and	a4,a4,a1
    80004c78:	00f63427          	fsd	fa5,8(a2)
    80004c7c:	d227f7d3          	fcvt.d.l	fa5,a5
    80004c80:	00d767b3          	or	a5,a4,a3
    80004c84:	0017d693          	srli	a3,a5,0x1
    80004c88:	00f6c733          	xor	a4,a3,a5
    80004c8c:	03e71713          	slli	a4,a4,0x3e
    80004c90:	00b77733          	and	a4,a4,a1
    80004c94:	00f63827          	fsd	fa5,16(a2)
    80004c98:	d227f7d3          	fcvt.d.l	fa5,a5
    80004c9c:	00d767b3          	or	a5,a4,a3
    80004ca0:	0017d693          	srli	a3,a5,0x1
    80004ca4:	00f6c733          	xor	a4,a3,a5
    80004ca8:	03e71713          	slli	a4,a4,0x3e
    80004cac:	00b77733          	and	a4,a4,a1
    80004cb0:	00f63c27          	fsd	fa5,24(a2)
    80004cb4:	d227f7d3          	fcvt.d.l	fa5,a5
    80004cb8:	00d767b3          	or	a5,a4,a3
    80004cbc:	0017d693          	srli	a3,a5,0x1
    80004cc0:	00f6c733          	xor	a4,a3,a5
    80004cc4:	03e71713          	slli	a4,a4,0x3e
    80004cc8:	00b77733          	and	a4,a4,a1
    80004ccc:	02f63027          	fsd	fa5,32(a2)
    80004cd0:	d227f7d3          	fcvt.d.l	fa5,a5
    80004cd4:	00d767b3          	or	a5,a4,a3
    80004cd8:	0017d693          	srli	a3,a5,0x1
    80004cdc:	00f6c733          	xor	a4,a3,a5
    80004ce0:	02f63427          	fsd	fa5,40(a2)
    80004ce4:	03e71713          	slli	a4,a4,0x3e
    80004ce8:	d227f7d3          	fcvt.d.l	fa5,a5
    80004cec:	00b77733          	and	a4,a4,a1
    80004cf0:	00d767b3          	or	a5,a4,a3
    80004cf4:	02f63827          	fsd	fa5,48(a2)
    80004cf8:	d227f7d3          	fcvt.d.l	fa5,a5
    80004cfc:	00860713          	addi	a4,a2,8
    80004d00:	04060613          	addi	a2,a2,64
    80004d04:	02f73827          	fsd	fa5,48(a4)
    80004d08:	f0c51ce3          	bne	a0,a2,80004c20 <thread_entry+0x1c0>
    80004d0c:	10070513          	addi	a0,a4,256
    80004d10:	eea818e3          	bne	a6,a0,80004c00 <thread_entry+0x1a0>
    80004d14:	00001637          	lui	a2,0x1
    80004d18:	2c060613          	addi	a2,a2,704 # 12c0 <buflen.2978+0x1240>
    80004d1c:	00000593          	li	a1,0
    80004d20:	00048513          	mv	a0,s1
    80004d24:	151000ef          	jal	ra,80005674 <memset>
    80004d28:	00800b93          	li	s7,8
    80004d2c:	01900d13          	li	s10,25
    80004d30:	b0202c73          	csrr	s8,minstret
    80004d34:	b0002cf3          	csrr	s9,mcycle
    80004d38:	01900813          	li	a6,25
    80004d3c:	01a13023          	sd	s10,0(sp)
    80004d40:	00048893          	mv	a7,s1
    80004d44:	00090793          	mv	a5,s2
    80004d48:	01800713          	li	a4,24
    80004d4c:	000a8693          	mv	a3,s5
    80004d50:	01800613          	li	a2,24
    80004d54:	01900593          	li	a1,25
    80004d58:	01800513          	li	a0,24
    80004d5c:	d40ff0ef          	jal	ra,8000429c <mm>
    80004d60:	b0202df3          	csrr	s11,minstret
    80004d64:	b00027f3          	csrr	a5,mcycle
    80004d68:	fffb8b9b          	addiw	s7,s7,-1
    80004d6c:	fc0b92e3          	bnez	s7,80004d30 <thread_entry+0x2d0>
    80004d70:	41978cb3          	sub	s9,a5,s9
    80004d74:	0ff0000f          	fence
    80004d78:	01800793          	li	a5,24
    80004d7c:	01800893          	li	a7,24
    80004d80:	01900813          	li	a6,25
    80004d84:	00600713          	li	a4,6
    80004d88:	00500693          	li	a3,5
    80004d8c:	00400613          	li	a2,4
    80004d90:	00098593          	mv	a1,s3
    80004d94:	00001517          	auipc	a0,0x1
    80004d98:	b9c50513          	addi	a0,a0,-1124 # 80005930 <main+0x34>
    80004d9c:	7b8000ef          	jal	ra,80005554 <printf>
    80004da0:	418d863b          	subw	a2,s11,s8
    80004da4:	00098593          	mv	a1,s3
    80004da8:	00001517          	auipc	a0,0x1
    80004dac:	bb850513          	addi	a0,a0,-1096 # 80005960 <main+0x64>
    80004db0:	7a4000ef          	jal	ra,80005554 <printf>
    80004db4:	000c861b          	sext.w	a2,s9
    80004db8:	00098593          	mv	a1,s3
    80004dbc:	00001517          	auipc	a0,0x1
    80004dc0:	bbc50513          	addi	a0,a0,-1092 # 80005978 <main+0x7c>
    80004dc4:	790000ef          	jal	ra,80005554 <printf>
    80004dc8:	00007637          	lui	a2,0x7
    80004dcc:	08060613          	addi	a2,a2,128 # 7080 <buflen.2978+0x7000>
    80004dd0:	00098593          	mv	a1,s3
    80004dd4:	00001517          	auipc	a0,0x1
    80004dd8:	bb450513          	addi	a0,a0,-1100 # 80005988 <main+0x8c>
    80004ddc:	778000ef          	jal	ra,80005554 <printf>
    80004de0:	01b77637          	lui	a2,0x1b77
    80004de4:	40060613          	addi	a2,a2,1024 # 1b77400 <buflen.2978+0x1b77380>
    80004de8:	03965633          	divu	a2,a2,s9
    80004dec:	00098593          	mv	a1,s3
    80004df0:	00001517          	auipc	a0,0x1
    80004df4:	ba850513          	addi	a0,a0,-1112 # 80005998 <main+0x9c>
    80004df8:	75c000ef          	jal	ra,80005554 <printf>
    80004dfc:	00001eb7          	lui	t4,0x1
    80004e00:	fffff337          	lui	t1,0xfffff
    80004e04:	00000613          	li	a2,0
    80004e08:	00001797          	auipc	a5,0x1
    80004e0c:	b187b507          	fld	fa0,-1256(a5) # 80005920 <main+0x24>
    80004e10:	00001797          	auipc	a5,0x1
    80004e14:	b187b587          	fld	fa1,-1256(a5) # 80005928 <main+0x2c>
    80004e18:	2c0e8e93          	addi	t4,t4,704 # 12c0 <buflen.2978+0x1240>
    80004e1c:	d4030313          	addi	t1,t1,-704 # ffffffffffffed40 <__global_pointer$+0xffffffff7fff8c20>
    80004e20:	01900e13          	li	t3,25
    80004e24:	01800f13          	li	t5,24
    80004e28:	01d90833          	add	a6,s2,t4
    80004e2c:	00048893          	mv	a7,s1
    80004e30:	00000693          	li	a3,0
    80004e34:	f20007d3          	fmv.d.x	fa5,zero
    80004e38:	006805b3          	add	a1,a6,t1
    80004e3c:	000b0513          	mv	a0,s6
    80004e40:	00053687          	fld	fa3,0(a0)
    80004e44:	0005b707          	fld	fa4,0(a1)
    80004e48:	00850713          	addi	a4,a0,8
    80004e4c:	0c858793          	addi	a5,a1,200
    80004e50:	7ae6f7c3          	fmadd.d	fa5,fa3,fa4,fa5
    80004e54:	00853687          	fld	fa3,8(a0)
    80004e58:	0c85b707          	fld	fa4,200(a1)
    80004e5c:	04050513          	addi	a0,a0,64
    80004e60:	7ae6f7c3          	fmadd.d	fa5,fa3,fa4,fa5
    80004e64:	1905b707          	fld	fa4,400(a1)
    80004e68:	fd053687          	fld	fa3,-48(a0)
    80004e6c:	57878593          	addi	a1,a5,1400
    80004e70:	7ae6f7c3          	fmadd.d	fa5,fa3,fa4,fa5
    80004e74:	01073687          	fld	fa3,16(a4)
    80004e78:	1907b707          	fld	fa4,400(a5)
    80004e7c:	7ae6f7c3          	fmadd.d	fa5,fa3,fa4,fa5
    80004e80:	01873687          	fld	fa3,24(a4)
    80004e84:	2587b707          	fld	fa4,600(a5)
    80004e88:	7ae6f7c3          	fmadd.d	fa5,fa3,fa4,fa5
    80004e8c:	02073687          	fld	fa3,32(a4)
    80004e90:	3207b707          	fld	fa4,800(a5)
    80004e94:	7ae6f7c3          	fmadd.d	fa5,fa3,fa4,fa5
    80004e98:	02873687          	fld	fa3,40(a4)
    80004e9c:	3e87b707          	fld	fa4,1000(a5)
    80004ea0:	7ae6f7c3          	fmadd.d	fa5,fa3,fa4,fa5
    80004ea4:	03073687          	fld	fa3,48(a4)
    80004ea8:	4b07b707          	fld	fa4,1200(a5)
    80004eac:	7ae6f7c3          	fmadd.d	fa5,fa3,fa4,fa5
    80004eb0:	f8b818e3          	bne	a6,a1,80004e40 <thread_entry+0x3e0>
    80004eb4:	12a7f7d3          	fmul.d	fa5,fa5,fa0
    80004eb8:	0008b607          	fld	fa2,0(a7)
    80004ebc:	12b7f6d3          	fmul.d	fa3,fa5,fa1
    80004ec0:	0af67753          	fsub.d	fa4,fa2,fa5
    80004ec4:	22d6a6d3          	fabs.d	fa3,fa3
    80004ec8:	22e72753          	fabs.d	fa4,fa4
    80004ecc:	a2e695d3          	flt.d	a1,fa3,fa4
    80004ed0:	02059a63          	bnez	a1,80004f04 <thread_entry+0x4a4>
    80004ed4:	00168693          	addi	a3,a3,1
    80004ed8:	00888893          	addi	a7,a7,8
    80004edc:	58078813          	addi	a6,a5,1408
    80004ee0:	f5c69ae3          	bne	a3,t3,80004e34 <thread_entry+0x3d4>
    80004ee4:	00160613          	addi	a2,a2,1
    80004ee8:	0c0b0b13          	addi	s6,s6,192
    80004eec:	0c848493          	addi	s1,s1,200
    80004ef0:	f3e61ce3          	bne	a2,t5,80004e28 <thread_entry+0x3c8>
    80004ef4:	000a0513          	mv	a0,s4
    80004ef8:	b11ff0ef          	jal	ra,80004a08 <barrier>
    80004efc:	00000513          	li	a0,0
    80004f00:	558000ef          	jal	ra,80005458 <exit>
    80004f04:	e20787d3          	fmv.x.d	a5,fa5
    80004f08:	e2060753          	fmv.x.d	a4,fa2
    80004f0c:	00098593          	mv	a1,s3
    80004f10:	00001517          	auipc	a0,0x1
    80004f14:	aa050513          	addi	a0,a0,-1376 # 800059b0 <main+0xb4>
    80004f18:	63c000ef          	jal	ra,80005554 <printf>
    80004f1c:	00100513          	li	a0,1
    80004f20:	538000ef          	jal	ra,80005458 <exit>

0000000080004f24 <vprintfmt>:
    80004f24:	ea010113          	addi	sp,sp,-352
    80004f28:	14813823          	sd	s0,336(sp)
    80004f2c:	14913423          	sd	s1,328(sp)
    80004f30:	15213023          	sd	s2,320(sp)
    80004f34:	13513423          	sd	s5,296(sp)
    80004f38:	13613023          	sd	s6,288(sp)
    80004f3c:	11713c23          	sd	s7,280(sp)
    80004f40:	14113c23          	sd	ra,344(sp)
    80004f44:	13313c23          	sd	s3,312(sp)
    80004f48:	13413823          	sd	s4,304(sp)
    80004f4c:	11813823          	sd	s8,272(sp)
    80004f50:	11913423          	sd	s9,264(sp)
    80004f54:	11a13023          	sd	s10,256(sp)
    80004f58:	00050913          	mv	s2,a0
    80004f5c:	00058493          	mv	s1,a1
    80004f60:	00060413          	mv	s0,a2
    80004f64:	00068b13          	mv	s6,a3
    80004f68:	02500a93          	li	s5,37
    80004f6c:	8f418b93          	addi	s7,gp,-1804 # 80005a14 <main+0x118>
    80004f70:	0140006f          	j	80004f84 <vprintfmt+0x60>
    80004f74:	06050063          	beqz	a0,80004fd4 <vprintfmt+0xb0>
    80004f78:	00048593          	mv	a1,s1
    80004f7c:	00140413          	addi	s0,s0,1
    80004f80:	000900e7          	jalr	s2
    80004f84:	00044503          	lbu	a0,0(s0)
    80004f88:	ff5516e3          	bne	a0,s5,80004f74 <vprintfmt+0x50>
    80004f8c:	00144683          	lbu	a3,1(s0)
    80004f90:	00140a13          	addi	s4,s0,1
    80004f94:	000a0713          	mv	a4,s4
    80004f98:	02000c93          	li	s9,32
    80004f9c:	fff00993          	li	s3,-1
    80004fa0:	fff00d13          	li	s10,-1
    80004fa4:	00000513          	li	a0,0
    80004fa8:	05500613          	li	a2,85
    80004fac:	00900593          	li	a1,9
    80004fb0:	fdd6879b          	addiw	a5,a3,-35
    80004fb4:	0ff7f793          	andi	a5,a5,255
    80004fb8:	00170413          	addi	s0,a4,1
    80004fbc:	06f66663          	bltu	a2,a5,80005028 <vprintfmt+0x104>
    80004fc0:	00279793          	slli	a5,a5,0x2
    80004fc4:	017787b3          	add	a5,a5,s7
    80004fc8:	0007a783          	lw	a5,0(a5)
    80004fcc:	017787b3          	add	a5,a5,s7
    80004fd0:	00078067          	jr	a5
    80004fd4:	15813083          	ld	ra,344(sp)
    80004fd8:	15013403          	ld	s0,336(sp)
    80004fdc:	14813483          	ld	s1,328(sp)
    80004fe0:	14013903          	ld	s2,320(sp)
    80004fe4:	13813983          	ld	s3,312(sp)
    80004fe8:	13013a03          	ld	s4,304(sp)
    80004fec:	12813a83          	ld	s5,296(sp)
    80004ff0:	12013b03          	ld	s6,288(sp)
    80004ff4:	11813b83          	ld	s7,280(sp)
    80004ff8:	11013c03          	ld	s8,272(sp)
    80004ffc:	10813c83          	ld	s9,264(sp)
    80005000:	10013d03          	ld	s10,256(sp)
    80005004:	16010113          	addi	sp,sp,352
    80005008:	00008067          	ret
    8000500c:	00068c93          	mv	s9,a3
    80005010:	00174683          	lbu	a3,1(a4)
    80005014:	00040713          	mv	a4,s0
    80005018:	00170413          	addi	s0,a4,1
    8000501c:	fdd6879b          	addiw	a5,a3,-35
    80005020:	0ff7f793          	andi	a5,a5,255
    80005024:	f8f67ee3          	bgeu	a2,a5,80004fc0 <vprintfmt+0x9c>
    80005028:	00048593          	mv	a1,s1
    8000502c:	02500513          	li	a0,37
    80005030:	000900e7          	jalr	s2
    80005034:	000a0413          	mv	s0,s4
    80005038:	f4dff06f          	j	80004f84 <vprintfmt+0x60>
    8000503c:	fd06899b          	addiw	s3,a3,-48
    80005040:	00174683          	lbu	a3,1(a4)
    80005044:	00040713          	mv	a4,s0
    80005048:	fd06879b          	addiw	a5,a3,-48
    8000504c:	0006881b          	sext.w	a6,a3
    80005050:	02f5e663          	bltu	a1,a5,8000507c <vprintfmt+0x158>
    80005054:	00174683          	lbu	a3,1(a4)
    80005058:	0029979b          	slliw	a5,s3,0x2
    8000505c:	013789bb          	addw	s3,a5,s3
    80005060:	0019999b          	slliw	s3,s3,0x1
    80005064:	010989bb          	addw	s3,s3,a6
    80005068:	fd06879b          	addiw	a5,a3,-48
    8000506c:	00170713          	addi	a4,a4,1
    80005070:	fd09899b          	addiw	s3,s3,-48
    80005074:	0006881b          	sext.w	a6,a3
    80005078:	fcf5fee3          	bgeu	a1,a5,80005054 <vprintfmt+0x130>
    8000507c:	f20d5ae3          	bgez	s10,80004fb0 <vprintfmt+0x8c>
    80005080:	00098d13          	mv	s10,s3
    80005084:	fff00993          	li	s3,-1
    80005088:	f29ff06f          	j	80004fb0 <vprintfmt+0x8c>
    8000508c:	00174683          	lbu	a3,1(a4)
    80005090:	00040713          	mv	a4,s0
    80005094:	f1dff06f          	j	80004fb0 <vprintfmt+0x8c>
    80005098:	00048593          	mv	a1,s1
    8000509c:	02500513          	li	a0,37
    800050a0:	000900e7          	jalr	s2
    800050a4:	ee1ff06f          	j	80004f84 <vprintfmt+0x60>
    800050a8:	000b2983          	lw	s3,0(s6)
    800050ac:	00174683          	lbu	a3,1(a4)
    800050b0:	008b0b13          	addi	s6,s6,8
    800050b4:	00040713          	mv	a4,s0
    800050b8:	fc5ff06f          	j	8000507c <vprintfmt+0x158>
    800050bc:	03000513          	li	a0,48
    800050c0:	00048593          	mv	a1,s1
    800050c4:	000900e7          	jalr	s2
    800050c8:	00048593          	mv	a1,s1
    800050cc:	07800513          	li	a0,120
    800050d0:	000900e7          	jalr	s2
    800050d4:	008b0693          	addi	a3,s6,8
    800050d8:	01000713          	li	a4,16
    800050dc:	000b3783          	ld	a5,0(s6)
    800050e0:	00068b13          	mv	s6,a3
    800050e4:	02e7f9b3          	remu	s3,a5,a4
    800050e8:	000c8c9b          	sext.w	s9,s9
    800050ec:	00410693          	addi	a3,sp,4
    800050f0:	00100c13          	li	s8,1
    800050f4:	01312023          	sw	s3,0(sp)
    800050f8:	1ae7e663          	bltu	a5,a4,800052a4 <vprintfmt+0x380>
    800050fc:	02e7d7b3          	divu	a5,a5,a4
    80005100:	00468693          	addi	a3,a3,4
    80005104:	000c0a13          	mv	s4,s8
    80005108:	001c0c1b          	addiw	s8,s8,1
    8000510c:	02e7f9b3          	remu	s3,a5,a4
    80005110:	ff36ae23          	sw	s3,-4(a3)
    80005114:	fee7f4e3          	bgeu	a5,a4,800050fc <vprintfmt+0x1d8>
    80005118:	01ac5e63          	bge	s8,s10,80005134 <vprintfmt+0x210>
    8000511c:	000d0d1b          	sext.w	s10,s10
    80005120:	fffd0d1b          	addiw	s10,s10,-1
    80005124:	00048593          	mv	a1,s1
    80005128:	000c8513          	mv	a0,s9
    8000512c:	000900e7          	jalr	s2
    80005130:	ffac48e3          	blt	s8,s10,80005120 <vprintfmt+0x1fc>
    80005134:	002a1a13          	slli	s4,s4,0x2
    80005138:	01410a33          	add	s4,sp,s4
    8000513c:	00010c93          	mv	s9,sp
    80005140:	00900c13          	li	s8,9
    80005144:	00c0006f          	j	80005150 <vprintfmt+0x22c>
    80005148:	ffca2983          	lw	s3,-4(s4)
    8000514c:	ffca0a13          	addi	s4,s4,-4
    80005150:	05700513          	li	a0,87
    80005154:	013c6463          	bltu	s8,s3,8000515c <vprintfmt+0x238>
    80005158:	03000513          	li	a0,48
    8000515c:	00048593          	mv	a1,s1
    80005160:	0135053b          	addw	a0,a0,s3
    80005164:	000900e7          	jalr	s2
    80005168:	ff9a10e3          	bne	s4,s9,80005148 <vprintfmt+0x224>
    8000516c:	e19ff06f          	j	80004f84 <vprintfmt+0x60>
    80005170:	00100793          	li	a5,1
    80005174:	008b0a13          	addi	s4,s6,8
    80005178:	00a7c463          	blt	a5,a0,80005180 <vprintfmt+0x25c>
    8000517c:	12050c63          	beqz	a0,800052b4 <vprintfmt+0x390>
    80005180:	000b3983          	ld	s3,0(s6)
    80005184:	1409c463          	bltz	s3,800052cc <vprintfmt+0x3a8>
    80005188:	00098793          	mv	a5,s3
    8000518c:	000a0b13          	mv	s6,s4
    80005190:	00a00713          	li	a4,10
    80005194:	f51ff06f          	j	800050e4 <vprintfmt+0x1c0>
    80005198:	00174683          	lbu	a3,1(a4)
    8000519c:	0015051b          	addiw	a0,a0,1
    800051a0:	00040713          	mv	a4,s0
    800051a4:	e0dff06f          	j	80004fb0 <vprintfmt+0x8c>
    800051a8:	01000713          	li	a4,16
    800051ac:	00100793          	li	a5,1
    800051b0:	008b0693          	addi	a3,s6,8
    800051b4:	f2a7c4e3          	blt	a5,a0,800050dc <vprintfmt+0x1b8>
    800051b8:	f20512e3          	bnez	a0,800050dc <vprintfmt+0x1b8>
    800051bc:	000b6783          	lwu	a5,0(s6)
    800051c0:	00068b13          	mv	s6,a3
    800051c4:	f21ff06f          	j	800050e4 <vprintfmt+0x1c0>
    800051c8:	000b3a03          	ld	s4,0(s6)
    800051cc:	008b0b13          	addi	s6,s6,8
    800051d0:	100a0c63          	beqz	s4,800052e8 <vprintfmt+0x3c4>
    800051d4:	09a05863          	blez	s10,80005264 <vprintfmt+0x340>
    800051d8:	02d00793          	li	a5,45
    800051dc:	04fc9c63          	bne	s9,a5,80005234 <vprintfmt+0x310>
    800051e0:	000a4503          	lbu	a0,0(s4)
    800051e4:	02050863          	beqz	a0,80005214 <vprintfmt+0x2f0>
    800051e8:	fff00c13          	li	s8,-1
    800051ec:	0009c663          	bltz	s3,800051f8 <vprintfmt+0x2d4>
    800051f0:	fff9899b          	addiw	s3,s3,-1
    800051f4:	01898e63          	beq	s3,s8,80005210 <vprintfmt+0x2ec>
    800051f8:	00048593          	mv	a1,s1
    800051fc:	001a0a13          	addi	s4,s4,1
    80005200:	000900e7          	jalr	s2
    80005204:	000a4503          	lbu	a0,0(s4)
    80005208:	fffd0d1b          	addiw	s10,s10,-1
    8000520c:	fe0510e3          	bnez	a0,800051ec <vprintfmt+0x2c8>
    80005210:	d7a05ae3          	blez	s10,80004f84 <vprintfmt+0x60>
    80005214:	fffd0d1b          	addiw	s10,s10,-1
    80005218:	00048593          	mv	a1,s1
    8000521c:	02000513          	li	a0,32
    80005220:	000900e7          	jalr	s2
    80005224:	fe0d18e3          	bnez	s10,80005214 <vprintfmt+0x2f0>
    80005228:	d5dff06f          	j	80004f84 <vprintfmt+0x60>
    8000522c:	00000a17          	auipc	s4,0x0
    80005230:	7a4a0a13          	addi	s4,s4,1956 # 800059d0 <main+0xd4>
    80005234:	000d061b          	sext.w	a2,s10
    80005238:	000a0793          	mv	a5,s4
    8000523c:	013a06b3          	add	a3,s4,s3
    80005240:	00099863          	bnez	s3,80005250 <vprintfmt+0x32c>
    80005244:	0c40006f          	j	80005308 <vprintfmt+0x3e4>
    80005248:	00178793          	addi	a5,a5,1
    8000524c:	00d78663          	beq	a5,a3,80005258 <vprintfmt+0x334>
    80005250:	0007c703          	lbu	a4,0(a5)
    80005254:	fe071ae3          	bnez	a4,80005248 <vprintfmt+0x324>
    80005258:	41478d33          	sub	s10,a5,s4
    8000525c:	41a60d3b          	subw	s10,a2,s10
    80005260:	0ba04463          	bgtz	s10,80005308 <vprintfmt+0x3e4>
    80005264:	000a4503          	lbu	a0,0(s4)
    80005268:	d0050ee3          	beqz	a0,80004f84 <vprintfmt+0x60>
    8000526c:	fff00c13          	li	s8,-1
    80005270:	f7dff06f          	j	800051ec <vprintfmt+0x2c8>
    80005274:	fffd4793          	not	a5,s10
    80005278:	43f7d793          	srai	a5,a5,0x3f
    8000527c:	00fd7d33          	and	s10,s10,a5
    80005280:	00174683          	lbu	a3,1(a4)
    80005284:	000d0d1b          	sext.w	s10,s10
    80005288:	00040713          	mv	a4,s0
    8000528c:	d25ff06f          	j	80004fb0 <vprintfmt+0x8c>
    80005290:	000b2503          	lw	a0,0(s6)
    80005294:	00048593          	mv	a1,s1
    80005298:	008b0b13          	addi	s6,s6,8
    8000529c:	000900e7          	jalr	s2
    800052a0:	ce5ff06f          	j	80004f84 <vprintfmt+0x60>
    800052a4:	00100793          	li	a5,1
    800052a8:	00000a13          	li	s4,0
    800052ac:	e7a7c8e3          	blt	a5,s10,8000511c <vprintfmt+0x1f8>
    800052b0:	e85ff06f          	j	80005134 <vprintfmt+0x210>
    800052b4:	000b2983          	lw	s3,0(s6)
    800052b8:	ecdff06f          	j	80005184 <vprintfmt+0x260>
    800052bc:	00800713          	li	a4,8
    800052c0:	eedff06f          	j	800051ac <vprintfmt+0x288>
    800052c4:	00a00713          	li	a4,10
    800052c8:	ee5ff06f          	j	800051ac <vprintfmt+0x288>
    800052cc:	00048593          	mv	a1,s1
    800052d0:	02d00513          	li	a0,45
    800052d4:	000900e7          	jalr	s2
    800052d8:	000a0b13          	mv	s6,s4
    800052dc:	413007b3          	neg	a5,s3
    800052e0:	00a00713          	li	a4,10
    800052e4:	e01ff06f          	j	800050e4 <vprintfmt+0x1c0>
    800052e8:	03a05e63          	blez	s10,80005324 <vprintfmt+0x400>
    800052ec:	02d00793          	li	a5,45
    800052f0:	f2fc9ee3          	bne	s9,a5,8000522c <vprintfmt+0x308>
    800052f4:	02800513          	li	a0,40
    800052f8:	00000a17          	auipc	s4,0x0
    800052fc:	6d8a0a13          	addi	s4,s4,1752 # 800059d0 <main+0xd4>
    80005300:	fff00c13          	li	s8,-1
    80005304:	ee9ff06f          	j	800051ec <vprintfmt+0x2c8>
    80005308:	000c8c9b          	sext.w	s9,s9
    8000530c:	fffd0d1b          	addiw	s10,s10,-1
    80005310:	00048593          	mv	a1,s1
    80005314:	000c8513          	mv	a0,s9
    80005318:	000900e7          	jalr	s2
    8000531c:	fe0d18e3          	bnez	s10,8000530c <vprintfmt+0x3e8>
    80005320:	f45ff06f          	j	80005264 <vprintfmt+0x340>
    80005324:	00000a17          	auipc	s4,0x0
    80005328:	6aca0a13          	addi	s4,s4,1708 # 800059d0 <main+0xd4>
    8000532c:	02800513          	li	a0,40
    80005330:	fff00c13          	li	s8,-1
    80005334:	eb9ff06f          	j	800051ec <vprintfmt+0x2c8>

0000000080005338 <sprintf_putch.3092>:
    80005338:	0005b783          	ld	a5,0(a1)
    8000533c:	00a78023          	sb	a0,0(a5)
    80005340:	0005b783          	ld	a5,0(a1)
    80005344:	00178793          	addi	a5,a5,1
    80005348:	00f5b023          	sd	a5,0(a1)
    8000534c:	00008067          	ret

0000000080005350 <putchar>:
    80005350:	08022803          	lw	a6,128(tp) # 80 <buflen.2978>
    80005354:	04020793          	addi	a5,tp,64 # 40 <buf.2977>
    80005358:	010787b3          	add	a5,a5,a6
    8000535c:	f9010113          	addi	sp,sp,-112
    80005360:	0018071b          	addiw	a4,a6,1
    80005364:	08e22023          	sw	a4,128(tp) # 80 <buflen.2978>
    80005368:	00a78023          	sb	a0,0(a5)
    8000536c:	00a00593          	li	a1,10
    80005370:	03f10793          	addi	a5,sp,63
    80005374:	fc07f793          	andi	a5,a5,-64
    80005378:	00b50c63          	beq	a0,a1,80005390 <putchar+0x40>
    8000537c:	04000593          	li	a1,64
    80005380:	00b70863          	beq	a4,a1,80005390 <putchar+0x40>
    80005384:	00000513          	li	a0,0
    80005388:	07010113          	addi	sp,sp,112
    8000538c:	00008067          	ret
    80005390:	04000593          	li	a1,64
    80005394:	00b7b023          	sd	a1,0(a5)
    80005398:	00100593          	li	a1,1
    8000539c:	00b7b423          	sd	a1,8(a5)
    800053a0:	04020693          	addi	a3,tp,64 # 40 <buf.2977>
    800053a4:	00d7b823          	sd	a3,16(a5)
    800053a8:	00e7bc23          	sd	a4,24(a5)
    800053ac:	0ff0000f          	fence
    800053b0:	ffffc697          	auipc	a3,0xffffc
    800053b4:	c9068693          	addi	a3,a3,-880 # 80001040 <fromhost>
    800053b8:	ffffc717          	auipc	a4,0xffffc
    800053bc:	c4f73423          	sd	a5,-952(a4) # 80001000 <tohost>
    800053c0:	0006b703          	ld	a4,0(a3)
    800053c4:	fe070ee3          	beqz	a4,800053c0 <putchar+0x70>
    800053c8:	ffffc717          	auipc	a4,0xffffc
    800053cc:	c6073c23          	sd	zero,-904(a4) # 80001040 <fromhost>
    800053d0:	0ff0000f          	fence
    800053d4:	08022023          	sw	zero,128(tp) # 80 <buflen.2978>
    800053d8:	0007b783          	ld	a5,0(a5)
    800053dc:	00000513          	li	a0,0
    800053e0:	07010113          	addi	sp,sp,112
    800053e4:	00008067          	ret

00000000800053e8 <setStats>:
    800053e8:	b0002773          	csrr	a4,mcycle
    800053ec:	a5818793          	addi	a5,gp,-1448 # 80005b78 <counters>
    800053f0:	00051c63          	bnez	a0,80005408 <setStats+0x20>
    800053f4:	0007b683          	ld	a3,0(a5)
    800053f8:	00000617          	auipc	a2,0x0
    800053fc:	5e060613          	addi	a2,a2,1504 # 800059d8 <main+0xdc>
    80005400:	00c7b823          	sd	a2,16(a5)
    80005404:	40d70733          	sub	a4,a4,a3
    80005408:	00e7b023          	sd	a4,0(a5)
    8000540c:	b0202773          	csrr	a4,minstret
    80005410:	00051c63          	bnez	a0,80005428 <setStats+0x40>
    80005414:	0087b683          	ld	a3,8(a5)
    80005418:	00000617          	auipc	a2,0x0
    8000541c:	5c860613          	addi	a2,a2,1480 # 800059e0 <main+0xe4>
    80005420:	00c7bc23          	sd	a2,24(a5)
    80005424:	40d70733          	sub	a4,a4,a3
    80005428:	00e7b423          	sd	a4,8(a5)
    8000542c:	00008067          	ret

0000000080005430 <tohost_exit>:
    80005430:	00151793          	slli	a5,a0,0x1
    80005434:	0017e793          	ori	a5,a5,1
    80005438:	ffffc717          	auipc	a4,0xffffc
    8000543c:	bcf73423          	sd	a5,-1080(a4) # 80001000 <tohost>
    80005440:	0000006f          	j	80005440 <tohost_exit+0x10>

0000000080005444 <handle_trap>:
    80005444:	000017b7          	lui	a5,0x1
    80005448:	a7378793          	addi	a5,a5,-1421 # a73 <buflen.2978+0x9f3>
    8000544c:	ffffc717          	auipc	a4,0xffffc
    80005450:	baf73a23          	sd	a5,-1100(a4) # 80001000 <tohost>
    80005454:	0000006f          	j	80005454 <handle_trap+0x10>

0000000080005458 <exit>:
    80005458:	ff010113          	addi	sp,sp,-16
    8000545c:	00113423          	sd	ra,8(sp)
    80005460:	fd1ff0ef          	jal	ra,80005430 <tohost_exit>

0000000080005464 <abort>:
    80005464:	10d00793          	li	a5,269
    80005468:	ffffc717          	auipc	a4,0xffffc
    8000546c:	b8f73c23          	sd	a5,-1128(a4) # 80001000 <tohost>
    80005470:	0000006f          	j	80005470 <abort+0xc>

0000000080005474 <printstr>:
    80005474:	00054783          	lbu	a5,0(a0)
    80005478:	f9010113          	addi	sp,sp,-112
    8000547c:	03f10693          	addi	a3,sp,63
    80005480:	fc06f693          	andi	a3,a3,-64
    80005484:	06078263          	beqz	a5,800054e8 <printstr+0x74>
    80005488:	00050793          	mv	a5,a0
    8000548c:	0017c703          	lbu	a4,1(a5)
    80005490:	00178793          	addi	a5,a5,1
    80005494:	fe071ce3          	bnez	a4,8000548c <printstr+0x18>
    80005498:	40a787b3          	sub	a5,a5,a0
    8000549c:	04000713          	li	a4,64
    800054a0:	00e6b023          	sd	a4,0(a3)
    800054a4:	00100713          	li	a4,1
    800054a8:	00e6b423          	sd	a4,8(a3)
    800054ac:	00a6b823          	sd	a0,16(a3)
    800054b0:	00f6bc23          	sd	a5,24(a3)
    800054b4:	0ff0000f          	fence
    800054b8:	ffffc717          	auipc	a4,0xffffc
    800054bc:	b8870713          	addi	a4,a4,-1144 # 80001040 <fromhost>
    800054c0:	ffffc797          	auipc	a5,0xffffc
    800054c4:	b4d7b023          	sd	a3,-1216(a5) # 80001000 <tohost>
    800054c8:	00073783          	ld	a5,0(a4)
    800054cc:	fe078ee3          	beqz	a5,800054c8 <printstr+0x54>
    800054d0:	ffffc797          	auipc	a5,0xffffc
    800054d4:	b607b823          	sd	zero,-1168(a5) # 80001040 <fromhost>
    800054d8:	0ff0000f          	fence
    800054dc:	0006b783          	ld	a5,0(a3)
    800054e0:	07010113          	addi	sp,sp,112
    800054e4:	00008067          	ret
    800054e8:	00000793          	li	a5,0
    800054ec:	fb1ff06f          	j	8000549c <printstr+0x28>
    800054f0:	00051063          	bnez	a0,800054f0 <printstr+0x7c>
    800054f4:	00008067          	ret

00000000800054f8 <printhex>:
    800054f8:	fd010113          	addi	sp,sp,-48
    800054fc:	00050793          	mv	a5,a0
    80005500:	02113423          	sd	ra,40(sp)
    80005504:	00810513          	addi	a0,sp,8
    80005508:	01710613          	addi	a2,sp,23
    8000550c:	00900813          	li	a6,9
    80005510:	0080006f          	j	80005518 <printhex+0x20>
    80005514:	00070613          	mv	a2,a4
    80005518:	00f7f693          	andi	a3,a5,15
    8000551c:	00068713          	mv	a4,a3
    80005520:	03000593          	li	a1,48
    80005524:	00d87463          	bgeu	a6,a3,8000552c <printhex+0x34>
    80005528:	05700593          	li	a1,87
    8000552c:	00b7073b          	addw	a4,a4,a1
    80005530:	00e60023          	sb	a4,0(a2)
    80005534:	0047d793          	srli	a5,a5,0x4
    80005538:	fff60713          	addi	a4,a2,-1
    8000553c:	fcc51ce3          	bne	a0,a2,80005514 <printhex+0x1c>
    80005540:	00010c23          	sb	zero,24(sp)
    80005544:	f31ff0ef          	jal	ra,80005474 <printstr>
    80005548:	02813083          	ld	ra,40(sp)
    8000554c:	03010113          	addi	sp,sp,48
    80005550:	00008067          	ret

0000000080005554 <printf>:
    80005554:	fa010113          	addi	sp,sp,-96
    80005558:	02810313          	addi	t1,sp,40
    8000555c:	00050e13          	mv	t3,a0
    80005560:	02b13423          	sd	a1,40(sp)
    80005564:	02c13823          	sd	a2,48(sp)
    80005568:	02d13c23          	sd	a3,56(sp)
    8000556c:	00000517          	auipc	a0,0x0
    80005570:	de450513          	addi	a0,a0,-540 # 80005350 <putchar>
    80005574:	00030693          	mv	a3,t1
    80005578:	000e0613          	mv	a2,t3
    8000557c:	00000593          	li	a1,0
    80005580:	00113c23          	sd	ra,24(sp)
    80005584:	04e13023          	sd	a4,64(sp)
    80005588:	04f13423          	sd	a5,72(sp)
    8000558c:	05013823          	sd	a6,80(sp)
    80005590:	05113c23          	sd	a7,88(sp)
    80005594:	00613423          	sd	t1,8(sp)
    80005598:	98dff0ef          	jal	ra,80004f24 <vprintfmt>
    8000559c:	01813083          	ld	ra,24(sp)
    800055a0:	00000513          	li	a0,0
    800055a4:	06010113          	addi	sp,sp,96
    800055a8:	00008067          	ret

00000000800055ac <sprintf>:
    800055ac:	fa010113          	addi	sp,sp,-96
    800055b0:	03010313          	addi	t1,sp,48
    800055b4:	02813023          	sd	s0,32(sp)
    800055b8:	00a13423          	sd	a0,8(sp)
    800055bc:	02c13823          	sd	a2,48(sp)
    800055c0:	02d13c23          	sd	a3,56(sp)
    800055c4:	00050413          	mv	s0,a0
    800055c8:	00058613          	mv	a2,a1
    800055cc:	00000517          	auipc	a0,0x0
    800055d0:	d6c50513          	addi	a0,a0,-660 # 80005338 <sprintf_putch.3092>
    800055d4:	00810593          	addi	a1,sp,8
    800055d8:	00030693          	mv	a3,t1
    800055dc:	02113423          	sd	ra,40(sp)
    800055e0:	04f13423          	sd	a5,72(sp)
    800055e4:	04e13023          	sd	a4,64(sp)
    800055e8:	05013823          	sd	a6,80(sp)
    800055ec:	05113c23          	sd	a7,88(sp)
    800055f0:	00613c23          	sd	t1,24(sp)
    800055f4:	931ff0ef          	jal	ra,80004f24 <vprintfmt>
    800055f8:	00813783          	ld	a5,8(sp)
    800055fc:	00078023          	sb	zero,0(a5)
    80005600:	00813503          	ld	a0,8(sp)
    80005604:	02813083          	ld	ra,40(sp)
    80005608:	4085053b          	subw	a0,a0,s0
    8000560c:	02013403          	ld	s0,32(sp)
    80005610:	06010113          	addi	sp,sp,96
    80005614:	00008067          	ret

0000000080005618 <memcpy>:
    80005618:	00c5e7b3          	or	a5,a1,a2
    8000561c:	00f567b3          	or	a5,a0,a5
    80005620:	0077f793          	andi	a5,a5,7
    80005624:	00c506b3          	add	a3,a0,a2
    80005628:	02078463          	beqz	a5,80005650 <memcpy+0x38>
    8000562c:	00c58633          	add	a2,a1,a2
    80005630:	00050793          	mv	a5,a0
    80005634:	02d57e63          	bgeu	a0,a3,80005670 <memcpy+0x58>
    80005638:	0005c703          	lbu	a4,0(a1)
    8000563c:	00158593          	addi	a1,a1,1
    80005640:	00178793          	addi	a5,a5,1
    80005644:	fee78fa3          	sb	a4,-1(a5)
    80005648:	feb618e3          	bne	a2,a1,80005638 <memcpy+0x20>
    8000564c:	00008067          	ret
    80005650:	fed57ee3          	bgeu	a0,a3,8000564c <memcpy+0x34>
    80005654:	00050793          	mv	a5,a0
    80005658:	0005b703          	ld	a4,0(a1)
    8000565c:	00878793          	addi	a5,a5,8
    80005660:	00858593          	addi	a1,a1,8
    80005664:	fee7bc23          	sd	a4,-8(a5)
    80005668:	fed7e8e3          	bltu	a5,a3,80005658 <memcpy+0x40>
    8000566c:	00008067          	ret
    80005670:	00008067          	ret

0000000080005674 <memset>:
    80005674:	00c567b3          	or	a5,a0,a2
    80005678:	0077f793          	andi	a5,a5,7
    8000567c:	00c50633          	add	a2,a0,a2
    80005680:	0ff5f593          	andi	a1,a1,255
    80005684:	00078e63          	beqz	a5,800056a0 <memset+0x2c>
    80005688:	00050793          	mv	a5,a0
    8000568c:	04c57263          	bgeu	a0,a2,800056d0 <memset+0x5c>
    80005690:	00178793          	addi	a5,a5,1
    80005694:	feb78fa3          	sb	a1,-1(a5)
    80005698:	fef61ce3          	bne	a2,a5,80005690 <memset+0x1c>
    8000569c:	00008067          	ret
    800056a0:	00859793          	slli	a5,a1,0x8
    800056a4:	00f5e7b3          	or	a5,a1,a5
    800056a8:	01079593          	slli	a1,a5,0x10
    800056ac:	00b7e7b3          	or	a5,a5,a1
    800056b0:	02079713          	slli	a4,a5,0x20
    800056b4:	00e7e7b3          	or	a5,a5,a4
    800056b8:	fec572e3          	bgeu	a0,a2,8000569c <memset+0x28>
    800056bc:	00050713          	mv	a4,a0
    800056c0:	00870713          	addi	a4,a4,8
    800056c4:	fef73c23          	sd	a5,-8(a4)
    800056c8:	fec76ce3          	bltu	a4,a2,800056c0 <memset+0x4c>
    800056cc:	00008067          	ret
    800056d0:	00008067          	ret

00000000800056d4 <_init>:
    800056d4:	f5010113          	addi	sp,sp,-176
    800056d8:	a7818793          	addi	a5,gp,-1416 # 80005b98 <_tdata_begin>
    800056dc:	09413023          	sd	s4,128(sp)
    800056e0:	a7818a13          	addi	s4,gp,-1416 # 80005b98 <_tdata_begin>
    800056e4:	09313423          	sd	s3,136(sp)
    800056e8:	40fa09b3          	sub	s3,s4,a5
    800056ec:	08913c23          	sd	s1,152(sp)
    800056f0:	09213823          	sd	s2,144(sp)
    800056f4:	00050493          	mv	s1,a0
    800056f8:	00058913          	mv	s2,a1
    800056fc:	00020513          	mv	a0,tp
    80005700:	00078593          	mv	a1,a5
    80005704:	00098613          	mv	a2,s3
    80005708:	0a113423          	sd	ra,168(sp)
    8000570c:	0a813023          	sd	s0,160(sp)
    80005710:	07513c23          	sd	s5,120(sp)
    80005714:	00020a93          	mv	s5,tp
    80005718:	f01ff0ef          	jal	ra,80005618 <memcpy>
    8000571c:	b2418613          	addi	a2,gp,-1244 # 80005c44 <_tbss_end>
    80005720:	41460633          	sub	a2,a2,s4
    80005724:	00000593          	li	a1,0
    80005728:	013a8533          	add	a0,s5,s3
    8000572c:	f49ff0ef          	jal	ra,80005674 <memset>
    80005730:	00090593          	mv	a1,s2
    80005734:	00048513          	mv	a0,s1
    80005738:	b28ff0ef          	jal	ra,80004a60 <thread_entry>
    8000573c:	00000593          	li	a1,0
    80005740:	00000513          	li	a0,0
    80005744:	1b8000ef          	jal	ra,800058fc <main>
    80005748:	a5818913          	addi	s2,gp,-1448 # 80005b78 <counters>
    8000574c:	00093683          	ld	a3,0(s2)
    80005750:	03f10413          	addi	s0,sp,63
    80005754:	fc047413          	andi	s0,s0,-64
    80005758:	00050493          	mv	s1,a0
    8000575c:	04069063          	bnez	a3,8000579c <_init+0xc8>
    80005760:	00893683          	ld	a3,8(s2)
    80005764:	00069663          	bnez	a3,80005770 <_init+0x9c>
    80005768:	00048513          	mv	a0,s1
    8000576c:	cc5ff0ef          	jal	ra,80005430 <tohost_exit>
    80005770:	00040993          	mv	s3,s0
    80005774:	01893603          	ld	a2,24(s2)
    80005778:	00098513          	mv	a0,s3
    8000577c:	00000597          	auipc	a1,0x0
    80005780:	28c58593          	addi	a1,a1,652 # 80005a08 <main+0x10c>
    80005784:	e29ff0ef          	jal	ra,800055ac <sprintf>
    80005788:	00a989b3          	add	s3,s3,a0
    8000578c:	fd340ee3          	beq	s0,s3,80005768 <_init+0x94>
    80005790:	00040513          	mv	a0,s0
    80005794:	ce1ff0ef          	jal	ra,80005474 <printstr>
    80005798:	fd1ff06f          	j	80005768 <_init+0x94>
    8000579c:	01093603          	ld	a2,16(s2)
    800057a0:	00000597          	auipc	a1,0x0
    800057a4:	26858593          	addi	a1,a1,616 # 80005a08 <main+0x10c>
    800057a8:	00040513          	mv	a0,s0
    800057ac:	e01ff0ef          	jal	ra,800055ac <sprintf>
    800057b0:	00893683          	ld	a3,8(s2)
    800057b4:	00a409b3          	add	s3,s0,a0
    800057b8:	fc068ae3          	beqz	a3,8000578c <_init+0xb8>
    800057bc:	fb9ff06f          	j	80005774 <_init+0xa0>

00000000800057c0 <strlen>:
    800057c0:	00054783          	lbu	a5,0(a0)
    800057c4:	00078e63          	beqz	a5,800057e0 <strlen+0x20>
    800057c8:	00050793          	mv	a5,a0
    800057cc:	0017c703          	lbu	a4,1(a5)
    800057d0:	00178793          	addi	a5,a5,1
    800057d4:	fe071ce3          	bnez	a4,800057cc <strlen+0xc>
    800057d8:	40a78533          	sub	a0,a5,a0
    800057dc:	00008067          	ret
    800057e0:	00000513          	li	a0,0
    800057e4:	00008067          	ret

00000000800057e8 <strnlen>:
    800057e8:	00050613          	mv	a2,a0
    800057ec:	00b606b3          	add	a3,a2,a1
    800057f0:	00058513          	mv	a0,a1
    800057f4:	00060793          	mv	a5,a2
    800057f8:	00059863          	bnez	a1,80005808 <strnlen+0x20>
    800057fc:	01c0006f          	j	80005818 <strnlen+0x30>
    80005800:	00178793          	addi	a5,a5,1
    80005804:	00f68863          	beq	a3,a5,80005814 <strnlen+0x2c>
    80005808:	0007c703          	lbu	a4,0(a5)
    8000580c:	fe071ae3          	bnez	a4,80005800 <strnlen+0x18>
    80005810:	40c78533          	sub	a0,a5,a2
    80005814:	00008067          	ret
    80005818:	00008067          	ret

000000008000581c <strcmp>:
    8000581c:	00054783          	lbu	a5,0(a0)
    80005820:	00158593          	addi	a1,a1,1
    80005824:	00150513          	addi	a0,a0,1
    80005828:	fff5c703          	lbu	a4,-1(a1)
    8000582c:	00078a63          	beqz	a5,80005840 <strcmp+0x24>
    80005830:	fee786e3          	beq	a5,a4,8000581c <strcmp>
    80005834:	0007851b          	sext.w	a0,a5
    80005838:	40e5053b          	subw	a0,a0,a4
    8000583c:	00008067          	ret
    80005840:	00000513          	li	a0,0
    80005844:	ff5ff06f          	j	80005838 <strcmp+0x1c>

0000000080005848 <strcpy>:
    80005848:	00050793          	mv	a5,a0
    8000584c:	0005c703          	lbu	a4,0(a1)
    80005850:	00178793          	addi	a5,a5,1
    80005854:	00158593          	addi	a1,a1,1
    80005858:	fee78fa3          	sb	a4,-1(a5)
    8000585c:	fe0718e3          	bnez	a4,8000584c <strcpy+0x4>
    80005860:	00008067          	ret

0000000080005864 <atol>:
    80005864:	00054703          	lbu	a4,0(a0)
    80005868:	02000693          	li	a3,32
    8000586c:	00050793          	mv	a5,a0
    80005870:	00d71863          	bne	a4,a3,80005880 <atol+0x1c>
    80005874:	0017c703          	lbu	a4,1(a5)
    80005878:	00178793          	addi	a5,a5,1
    8000587c:	fed70ce3          	beq	a4,a3,80005874 <atol+0x10>
    80005880:	02d00693          	li	a3,45
    80005884:	06d70063          	beq	a4,a3,800058e4 <atol+0x80>
    80005888:	02b00693          	li	a3,43
    8000588c:	04d70063          	beq	a4,a3,800058cc <atol+0x68>
    80005890:	0007c683          	lbu	a3,0(a5)
    80005894:	00000593          	li	a1,0
    80005898:	04068263          	beqz	a3,800058dc <atol+0x78>
    8000589c:	00000513          	li	a0,0
    800058a0:	00178793          	addi	a5,a5,1
    800058a4:	fd06861b          	addiw	a2,a3,-48
    800058a8:	00251713          	slli	a4,a0,0x2
    800058ac:	0007c683          	lbu	a3,0(a5)
    800058b0:	00a70533          	add	a0,a4,a0
    800058b4:	00151513          	slli	a0,a0,0x1
    800058b8:	00a60533          	add	a0,a2,a0
    800058bc:	fe0692e3          	bnez	a3,800058a0 <atol+0x3c>
    800058c0:	02058063          	beqz	a1,800058e0 <atol+0x7c>
    800058c4:	40a00533          	neg	a0,a0
    800058c8:	00008067          	ret
    800058cc:	0017c683          	lbu	a3,1(a5)
    800058d0:	00000593          	li	a1,0
    800058d4:	00178793          	addi	a5,a5,1
    800058d8:	fc0692e3          	bnez	a3,8000589c <atol+0x38>
    800058dc:	00000513          	li	a0,0
    800058e0:	00008067          	ret
    800058e4:	0017c683          	lbu	a3,1(a5)
    800058e8:	00100593          	li	a1,1
    800058ec:	00178793          	addi	a5,a5,1
    800058f0:	fa0696e3          	bnez	a3,8000589c <atol+0x38>
    800058f4:	00000513          	li	a0,0
    800058f8:	fe9ff06f          	j	800058e0 <atol+0x7c>

Disassembly of section .text.startup:

00000000800058fc <main>:
    800058fc:	ff010113          	addi	sp,sp,-16
    80005900:	00000517          	auipc	a0,0x0
    80005904:	0f050513          	addi	a0,a0,240 # 800059f0 <main+0xf4>
    80005908:	00113423          	sd	ra,8(sp)
    8000590c:	b69ff0ef          	jal	ra,80005474 <printstr>
    80005910:	00813083          	ld	ra,8(sp)
    80005914:	fff00513          	li	a0,-1
    80005918:	01010113          	addi	sp,sp,16
    8000591c:	00008067          	ret
