
spmv.riscv:     file format elf64-littleriscv


Disassembly of section .text.init:

0000000080000000 <_start>:
    80000000:	00000093          	li	ra,0
    80000004:	00000113          	li	sp,0
    80000008:	00000193          	li	gp,0
    8000000c:	00000213          	li	tp,0
    80000010:	00000293          	li	t0,0
    80000014:	00000313          	li	t1,0
    80000018:	00000393          	li	t2,0
    8000001c:	00000413          	li	s0,0
    80000020:	00000493          	li	s1,0
    80000024:	00000513          	li	a0,0
    80000028:	00000593          	li	a1,0
    8000002c:	00000613          	li	a2,0
    80000030:	00000693          	li	a3,0
    80000034:	00000713          	li	a4,0
    80000038:	00000793          	li	a5,0
    8000003c:	00000813          	li	a6,0
    80000040:	00000893          	li	a7,0
    80000044:	00000913          	li	s2,0
    80000048:	00000993          	li	s3,0
    8000004c:	00000a13          	li	s4,0
    80000050:	00000a93          	li	s5,0
    80000054:	00000b13          	li	s6,0
    80000058:	00000b93          	li	s7,0
    8000005c:	00000c13          	li	s8,0
    80000060:	00000c93          	li	s9,0
    80000064:	00000d13          	li	s10,0
    80000068:	00000d93          	li	s11,0
    8000006c:	00000e13          	li	t3,0
    80000070:	00000e93          	li	t4,0
    80000074:	00000f13          	li	t5,0
    80000078:	00000f93          	li	t6,0
    8000007c:	0001e2b7          	lui	t0,0x1e
    80000080:	3002a073          	csrs	mstatus,t0
    80000084:	00100293          	li	t0,1
    80000088:	01f29293          	slli	t0,t0,0x1f
    8000008c:	0002da63          	bgez	t0,800000a0 <_start+0xa0>
    80000090:	00100513          	li	a0,1
    80000094:	00001297          	auipc	t0,0x1
    80000098:	f6a2a623          	sw	a0,-148(t0) # 80001000 <tohost>
    8000009c:	ff5ff06f          	j	80000090 <_start+0x90>
    800000a0:	00000297          	auipc	t0,0x0
    800000a4:	09028293          	addi	t0,t0,144 # 80000130 <_start+0x130>
    800000a8:	30529073          	csrw	mtvec,t0
    800000ac:	00301073          	fscsr	zero
    800000b0:	f0000053          	fmv.w.x	ft0,zero
    800000b4:	f00000d3          	fmv.w.x	ft1,zero
    800000b8:	f0000153          	fmv.w.x	ft2,zero
    800000bc:	f00001d3          	fmv.w.x	ft3,zero
    800000c0:	f0000253          	fmv.w.x	ft4,zero
    800000c4:	f00002d3          	fmv.w.x	ft5,zero
    800000c8:	f0000353          	fmv.w.x	ft6,zero
    800000cc:	f00003d3          	fmv.w.x	ft7,zero
    800000d0:	f0000453          	fmv.w.x	fs0,zero
    800000d4:	f00004d3          	fmv.w.x	fs1,zero
    800000d8:	f0000553          	fmv.w.x	fa0,zero
    800000dc:	f00005d3          	fmv.w.x	fa1,zero
    800000e0:	f0000653          	fmv.w.x	fa2,zero
    800000e4:	f00006d3          	fmv.w.x	fa3,zero
    800000e8:	f0000753          	fmv.w.x	fa4,zero
    800000ec:	f00007d3          	fmv.w.x	fa5,zero
    800000f0:	f0000853          	fmv.w.x	fa6,zero
    800000f4:	f00008d3          	fmv.w.x	fa7,zero
    800000f8:	f0000953          	fmv.w.x	fs2,zero
    800000fc:	f00009d3          	fmv.w.x	fs3,zero
    80000100:	f0000a53          	fmv.w.x	fs4,zero
    80000104:	f0000ad3          	fmv.w.x	fs5,zero
    80000108:	f0000b53          	fmv.w.x	fs6,zero
    8000010c:	f0000bd3          	fmv.w.x	fs7,zero
    80000110:	f0000c53          	fmv.w.x	fs8,zero
    80000114:	f0000cd3          	fmv.w.x	fs9,zero
    80000118:	f0000d53          	fmv.w.x	fs10,zero
    8000011c:	f0000dd3          	fmv.w.x	fs11,zero
    80000120:	f0000e53          	fmv.w.x	ft8,zero
    80000124:	f0000ed3          	fmv.w.x	ft9,zero
    80000128:	f0000f53          	fmv.w.x	ft10,zero
    8000012c:	f0000fd3          	fmv.w.x	ft11,zero
    80000130:	00000297          	auipc	t0,0x0
    80000134:	04428293          	addi	t0,t0,68 # 80000174 <trap_entry>
    80000138:	30529073          	csrw	mtvec,t0
    8000013c:	00003197          	auipc	gp,0x3
    80000140:	37418193          	addi	gp,gp,884 # 800034b0 <__global_pointer$>
    80000144:	0000c217          	auipc	tp,0xc
    80000148:	53b20213          	addi	tp,tp,1339 # 8000c67f <_end+0x3f>
    8000014c:	fc027213          	andi	tp,tp,-64
    80000150:	f1402573          	csrr	a0,mhartid
    80000154:	00100593          	li	a1,1
    80000158:	00b57063          	bgeu	a0,a1,80000158 <_start+0x158>
    8000015c:	00150113          	addi	sp,a0,1
    80000160:	01111113          	slli	sp,sp,0x11
    80000164:	00410133          	add	sp,sp,tp
    80000168:	01151613          	slli	a2,a0,0x11
    8000016c:	00c20233          	add	tp,tp,a2
    80000170:	7dc0206f          	j	8000294c <_init>

0000000080000174 <trap_entry>:
    80000174:	ef010113          	addi	sp,sp,-272
    80000178:	00113423          	sd	ra,8(sp)
    8000017c:	00213823          	sd	sp,16(sp)
    80000180:	00313c23          	sd	gp,24(sp)
    80000184:	02413023          	sd	tp,32(sp)
    80000188:	02513423          	sd	t0,40(sp)
    8000018c:	02613823          	sd	t1,48(sp)
    80000190:	02713c23          	sd	t2,56(sp)
    80000194:	04813023          	sd	s0,64(sp)
    80000198:	04913423          	sd	s1,72(sp)
    8000019c:	04a13823          	sd	a0,80(sp)
    800001a0:	04b13c23          	sd	a1,88(sp)
    800001a4:	06c13023          	sd	a2,96(sp)
    800001a8:	06d13423          	sd	a3,104(sp)
    800001ac:	06e13823          	sd	a4,112(sp)
    800001b0:	06f13c23          	sd	a5,120(sp)
    800001b4:	09013023          	sd	a6,128(sp)
    800001b8:	09113423          	sd	a7,136(sp)
    800001bc:	09213823          	sd	s2,144(sp)
    800001c0:	09313c23          	sd	s3,152(sp)
    800001c4:	0b413023          	sd	s4,160(sp)
    800001c8:	0b513423          	sd	s5,168(sp)
    800001cc:	0b613823          	sd	s6,176(sp)
    800001d0:	0b713c23          	sd	s7,184(sp)
    800001d4:	0d813023          	sd	s8,192(sp)
    800001d8:	0d913423          	sd	s9,200(sp)
    800001dc:	0da13823          	sd	s10,208(sp)
    800001e0:	0db13c23          	sd	s11,216(sp)
    800001e4:	0fc13023          	sd	t3,224(sp)
    800001e8:	0fd13423          	sd	t4,232(sp)
    800001ec:	0fe13823          	sd	t5,240(sp)
    800001f0:	0ff13c23          	sd	t6,248(sp)
    800001f4:	34202573          	csrr	a0,mcause
    800001f8:	341025f3          	csrr	a1,mepc
    800001fc:	00010613          	mv	a2,sp
    80000200:	4bc020ef          	jal	ra,800026bc <handle_trap>
    80000204:	34151073          	csrw	mepc,a0
    80000208:	000022b7          	lui	t0,0x2
    8000020c:	8002829b          	addiw	t0,t0,-2048
    80000210:	3002a073          	csrs	mstatus,t0
    80000214:	00813083          	ld	ra,8(sp)
    80000218:	01013103          	ld	sp,16(sp)
    8000021c:	01813183          	ld	gp,24(sp)
    80000220:	02013203          	ld	tp,32(sp)
    80000224:	02813283          	ld	t0,40(sp)
    80000228:	03013303          	ld	t1,48(sp)
    8000022c:	03813383          	ld	t2,56(sp)
    80000230:	04013403          	ld	s0,64(sp)
    80000234:	04813483          	ld	s1,72(sp)
    80000238:	05013503          	ld	a0,80(sp)
    8000023c:	05813583          	ld	a1,88(sp)
    80000240:	06013603          	ld	a2,96(sp)
    80000244:	06813683          	ld	a3,104(sp)
    80000248:	07013703          	ld	a4,112(sp)
    8000024c:	07813783          	ld	a5,120(sp)
    80000250:	08013803          	ld	a6,128(sp)
    80000254:	08813883          	ld	a7,136(sp)
    80000258:	09013903          	ld	s2,144(sp)
    8000025c:	09813983          	ld	s3,152(sp)
    80000260:	0a013a03          	ld	s4,160(sp)
    80000264:	0a813a83          	ld	s5,168(sp)
    80000268:	0b013b03          	ld	s6,176(sp)
    8000026c:	0b813b83          	ld	s7,184(sp)
    80000270:	0c013c03          	ld	s8,192(sp)
    80000274:	0c813c83          	ld	s9,200(sp)
    80000278:	0d013d03          	ld	s10,208(sp)
    8000027c:	0d813d83          	ld	s11,216(sp)
    80000280:	0e013e03          	ld	t3,224(sp)
    80000284:	0e813e83          	ld	t4,232(sp)
    80000288:	0f013f03          	ld	t5,240(sp)
    8000028c:	0f813f83          	ld	t6,248(sp)
    80000290:	11010113          	addi	sp,sp,272
    80000294:	30200073          	mret

Disassembly of section .text:

0000000080002000 <spmv>:
    80002000:	18a05863          	blez	a0,80002190 <spmv+0x190>
    80002004:	fff50e9b          	addiw	t4,a0,-1
    80002008:	020e9e93          	slli	t4,t4,0x20
    8000200c:	fe010113          	addi	sp,sp,-32
    80002010:	00070313          	mv	t1,a4
    80002014:	01eede93          	srli	t4,t4,0x1e
    80002018:	00470713          	addi	a4,a4,4
    8000201c:	00813c23          	sd	s0,24(sp)
    80002020:	00913823          	sd	s1,16(sp)
    80002024:	01213423          	sd	s2,8(sp)
    80002028:	00078e13          	mv	t3,a5
    8000202c:	00ee8eb3          	add	t4,t4,a4
    80002030:	02058f93          	addi	t6,a1,32
    80002034:	00858f13          	addi	t5,a1,8
    80002038:	00432403          	lw	s0,4(t1)
    8000203c:	00032383          	lw	t2,0(t1)
    80002040:	ffd4079b          	addiw	a5,s0,-3
    80002044:	14f3d063          	bge	t2,a5,80002184 <spmv+0x184>
    80002048:	ffc4091b          	addiw	s2,s0,-4
    8000204c:	f20006d3          	fmv.d.x	fa3,zero
    80002050:	4079093b          	subw	s2,s2,t2
    80002054:	0029549b          	srliw	s1,s2,0x2
    80002058:	00249493          	slli	s1,s1,0x2
    8000205c:	007484b3          	add	s1,s1,t2
    80002060:	22d68653          	fmv.d	fa2,fa3
    80002064:	22d68753          	fmv.d	fa4,fa3
    80002068:	22d687d3          	fmv.d	fa5,fa3
    8000206c:	00339793          	slli	a5,t2,0x3
    80002070:	00239713          	slli	a4,t2,0x2
    80002074:	00349493          	slli	s1,s1,0x3
    80002078:	00f587b3          	add	a5,a1,a5
    8000207c:	00e60733          	add	a4,a2,a4
    80002080:	0029591b          	srliw	s2,s2,0x2
    80002084:	01f484b3          	add	s1,s1,t6
    80002088:	00072283          	lw	t0,0(a4)
    8000208c:	00472883          	lw	a7,4(a4)
    80002090:	00872803          	lw	a6,8(a4)
    80002094:	00c72503          	lw	a0,12(a4)
    80002098:	00329293          	slli	t0,t0,0x3
    8000209c:	00389893          	slli	a7,a7,0x3
    800020a0:	00381813          	slli	a6,a6,0x3
    800020a4:	00351513          	slli	a0,a0,0x3
    800020a8:	005682b3          	add	t0,a3,t0
    800020ac:	011688b3          	add	a7,a3,a7
    800020b0:	01068833          	add	a6,a3,a6
    800020b4:	00a68533          	add	a0,a3,a0
    800020b8:	0007b287          	fld	ft5,0(a5)
    800020bc:	0087b187          	fld	ft3,8(a5)
    800020c0:	0107b087          	fld	ft1,16(a5)
    800020c4:	0187b507          	fld	fa0,24(a5)
    800020c8:	0002b207          	fld	ft4,0(t0) # 2000 <buflen.2978+0x1fc0>
    800020cc:	0008b107          	fld	ft2,0(a7)
    800020d0:	00083007          	fld	ft0,0(a6)
    800020d4:	00053587          	fld	fa1,0(a0)
    800020d8:	02078793          	addi	a5,a5,32
    800020dc:	7a42f7c3          	fmadd.d	fa5,ft5,ft4,fa5
    800020e0:	7221f743          	fmadd.d	fa4,ft3,ft2,fa4
    800020e4:	6200f643          	fmadd.d	fa2,ft1,ft0,fa2
    800020e8:	6ab576c3          	fmadd.d	fa3,fa0,fa1,fa3
    800020ec:	01070713          	addi	a4,a4,16
    800020f0:	f8f49ce3          	bne	s1,a5,80002088 <spmv+0x88>
    800020f4:	02c77753          	fadd.d	fa4,fa4,fa2
    800020f8:	0043871b          	addiw	a4,t2,4
    800020fc:	0029191b          	slliw	s2,s2,0x2
    80002100:	00e903bb          	addw	t2,s2,a4
    80002104:	02d77753          	fadd.d	fa4,fa4,fa3
    80002108:	0483da63          	bge	t2,s0,8000215c <spmv+0x15c>
    8000210c:	fff4081b          	addiw	a6,s0,-1
    80002110:	4078083b          	subw	a6,a6,t2
    80002114:	02081813          	slli	a6,a6,0x20
    80002118:	02085813          	srli	a6,a6,0x20
    8000211c:	00780833          	add	a6,a6,t2
    80002120:	00339513          	slli	a0,t2,0x3
    80002124:	00239713          	slli	a4,t2,0x2
    80002128:	00381813          	slli	a6,a6,0x3
    8000212c:	00a58533          	add	a0,a1,a0
    80002130:	00e60733          	add	a4,a2,a4
    80002134:	01e80833          	add	a6,a6,t5
    80002138:	00072783          	lw	a5,0(a4)
    8000213c:	00053607          	fld	fa2,0(a0)
    80002140:	00850513          	addi	a0,a0,8
    80002144:	00379793          	slli	a5,a5,0x3
    80002148:	00f687b3          	add	a5,a3,a5
    8000214c:	0007b687          	fld	fa3,0(a5)
    80002150:	00470713          	addi	a4,a4,4
    80002154:	7ad677c3          	fmadd.d	fa5,fa2,fa3,fa5
    80002158:	fea810e3          	bne	a6,a0,80002138 <spmv+0x138>
    8000215c:	02e7f7d3          	fadd.d	fa5,fa5,fa4
    80002160:	00430313          	addi	t1,t1,4
    80002164:	008e0e13          	addi	t3,t3,8
    80002168:	fefe3c27          	fsd	fa5,-8(t3)
    8000216c:	ec6e96e3          	bne	t4,t1,80002038 <spmv+0x38>
    80002170:	01813403          	ld	s0,24(sp)
    80002174:	01013483          	ld	s1,16(sp)
    80002178:	00813903          	ld	s2,8(sp)
    8000217c:	02010113          	addi	sp,sp,32
    80002180:	00008067          	ret
    80002184:	f2000753          	fmv.d.x	fa4,zero
    80002188:	22e707d3          	fmv.d	fa5,fa4
    8000218c:	f7dff06f          	j	80002108 <spmv+0x108>
    80002190:	00008067          	ret

0000000080002194 <vprintfmt>:
    80002194:	ea010113          	addi	sp,sp,-352
    80002198:	14813823          	sd	s0,336(sp)
    8000219c:	14913423          	sd	s1,328(sp)
    800021a0:	15213023          	sd	s2,320(sp)
    800021a4:	13513423          	sd	s5,296(sp)
    800021a8:	13613023          	sd	s6,288(sp)
    800021ac:	11713c23          	sd	s7,280(sp)
    800021b0:	14113c23          	sd	ra,344(sp)
    800021b4:	13313c23          	sd	s3,312(sp)
    800021b8:	13413823          	sd	s4,304(sp)
    800021bc:	11813823          	sd	s8,272(sp)
    800021c0:	11913423          	sd	s9,264(sp)
    800021c4:	11a13023          	sd	s10,256(sp)
    800021c8:	00050913          	mv	s2,a0
    800021cc:	00058493          	mv	s1,a1
    800021d0:	00060413          	mv	s0,a2
    800021d4:	00068b13          	mv	s6,a3
    800021d8:	02500a93          	li	s5,37
    800021dc:	0000ab97          	auipc	s7,0xa
    800021e0:	26cb8b93          	addi	s7,s7,620 # 8000c448 <val+0x4af8>
    800021e4:	0140006f          	j	800021f8 <vprintfmt+0x64>
    800021e8:	06050063          	beqz	a0,80002248 <vprintfmt+0xb4>
    800021ec:	00048593          	mv	a1,s1
    800021f0:	00140413          	addi	s0,s0,1
    800021f4:	000900e7          	jalr	s2
    800021f8:	00044503          	lbu	a0,0(s0)
    800021fc:	ff5516e3          	bne	a0,s5,800021e8 <vprintfmt+0x54>
    80002200:	00144683          	lbu	a3,1(s0)
    80002204:	00140a13          	addi	s4,s0,1
    80002208:	000a0713          	mv	a4,s4
    8000220c:	02000c93          	li	s9,32
    80002210:	fff00993          	li	s3,-1
    80002214:	fff00d13          	li	s10,-1
    80002218:	00000513          	li	a0,0
    8000221c:	05500613          	li	a2,85
    80002220:	00900593          	li	a1,9
    80002224:	fdd6879b          	addiw	a5,a3,-35
    80002228:	0ff7f793          	andi	a5,a5,255
    8000222c:	00170413          	addi	s0,a4,1
    80002230:	06f66663          	bltu	a2,a5,8000229c <vprintfmt+0x108>
    80002234:	00279793          	slli	a5,a5,0x2
    80002238:	017787b3          	add	a5,a5,s7
    8000223c:	0007a783          	lw	a5,0(a5)
    80002240:	017787b3          	add	a5,a5,s7
    80002244:	00078067          	jr	a5
    80002248:	15813083          	ld	ra,344(sp)
    8000224c:	15013403          	ld	s0,336(sp)
    80002250:	14813483          	ld	s1,328(sp)
    80002254:	14013903          	ld	s2,320(sp)
    80002258:	13813983          	ld	s3,312(sp)
    8000225c:	13013a03          	ld	s4,304(sp)
    80002260:	12813a83          	ld	s5,296(sp)
    80002264:	12013b03          	ld	s6,288(sp)
    80002268:	11813b83          	ld	s7,280(sp)
    8000226c:	11013c03          	ld	s8,272(sp)
    80002270:	10813c83          	ld	s9,264(sp)
    80002274:	10013d03          	ld	s10,256(sp)
    80002278:	16010113          	addi	sp,sp,352
    8000227c:	00008067          	ret
    80002280:	00068c93          	mv	s9,a3
    80002284:	00174683          	lbu	a3,1(a4)
    80002288:	00040713          	mv	a4,s0
    8000228c:	00170413          	addi	s0,a4,1
    80002290:	fdd6879b          	addiw	a5,a3,-35
    80002294:	0ff7f793          	andi	a5,a5,255
    80002298:	f8f67ee3          	bgeu	a2,a5,80002234 <vprintfmt+0xa0>
    8000229c:	00048593          	mv	a1,s1
    800022a0:	02500513          	li	a0,37
    800022a4:	000900e7          	jalr	s2
    800022a8:	000a0413          	mv	s0,s4
    800022ac:	f4dff06f          	j	800021f8 <vprintfmt+0x64>
    800022b0:	fd06899b          	addiw	s3,a3,-48
    800022b4:	00174683          	lbu	a3,1(a4)
    800022b8:	00040713          	mv	a4,s0
    800022bc:	fd06879b          	addiw	a5,a3,-48
    800022c0:	0006881b          	sext.w	a6,a3
    800022c4:	02f5e663          	bltu	a1,a5,800022f0 <vprintfmt+0x15c>
    800022c8:	00174683          	lbu	a3,1(a4)
    800022cc:	0029979b          	slliw	a5,s3,0x2
    800022d0:	013789bb          	addw	s3,a5,s3
    800022d4:	0019999b          	slliw	s3,s3,0x1
    800022d8:	010989bb          	addw	s3,s3,a6
    800022dc:	fd06879b          	addiw	a5,a3,-48
    800022e0:	00170713          	addi	a4,a4,1
    800022e4:	fd09899b          	addiw	s3,s3,-48
    800022e8:	0006881b          	sext.w	a6,a3
    800022ec:	fcf5fee3          	bgeu	a1,a5,800022c8 <vprintfmt+0x134>
    800022f0:	f20d5ae3          	bgez	s10,80002224 <vprintfmt+0x90>
    800022f4:	00098d13          	mv	s10,s3
    800022f8:	fff00993          	li	s3,-1
    800022fc:	f29ff06f          	j	80002224 <vprintfmt+0x90>
    80002300:	00174683          	lbu	a3,1(a4)
    80002304:	00040713          	mv	a4,s0
    80002308:	f1dff06f          	j	80002224 <vprintfmt+0x90>
    8000230c:	00048593          	mv	a1,s1
    80002310:	02500513          	li	a0,37
    80002314:	000900e7          	jalr	s2
    80002318:	ee1ff06f          	j	800021f8 <vprintfmt+0x64>
    8000231c:	000b2983          	lw	s3,0(s6)
    80002320:	00174683          	lbu	a3,1(a4)
    80002324:	008b0b13          	addi	s6,s6,8
    80002328:	00040713          	mv	a4,s0
    8000232c:	fc5ff06f          	j	800022f0 <vprintfmt+0x15c>
    80002330:	03000513          	li	a0,48
    80002334:	00048593          	mv	a1,s1
    80002338:	000900e7          	jalr	s2
    8000233c:	00048593          	mv	a1,s1
    80002340:	07800513          	li	a0,120
    80002344:	000900e7          	jalr	s2
    80002348:	008b0693          	addi	a3,s6,8
    8000234c:	01000713          	li	a4,16
    80002350:	000b3783          	ld	a5,0(s6)
    80002354:	00068b13          	mv	s6,a3
    80002358:	02e7f9b3          	remu	s3,a5,a4
    8000235c:	000c8c9b          	sext.w	s9,s9
    80002360:	00410693          	addi	a3,sp,4
    80002364:	00100c13          	li	s8,1
    80002368:	01312023          	sw	s3,0(sp)
    8000236c:	1ae7e663          	bltu	a5,a4,80002518 <vprintfmt+0x384>
    80002370:	02e7d7b3          	divu	a5,a5,a4
    80002374:	00468693          	addi	a3,a3,4
    80002378:	000c0a13          	mv	s4,s8
    8000237c:	001c0c1b          	addiw	s8,s8,1
    80002380:	02e7f9b3          	remu	s3,a5,a4
    80002384:	ff36ae23          	sw	s3,-4(a3)
    80002388:	fee7f4e3          	bgeu	a5,a4,80002370 <vprintfmt+0x1dc>
    8000238c:	01ac5e63          	bge	s8,s10,800023a8 <vprintfmt+0x214>
    80002390:	000d0d1b          	sext.w	s10,s10
    80002394:	fffd0d1b          	addiw	s10,s10,-1
    80002398:	00048593          	mv	a1,s1
    8000239c:	000c8513          	mv	a0,s9
    800023a0:	000900e7          	jalr	s2
    800023a4:	ffac48e3          	blt	s8,s10,80002394 <vprintfmt+0x200>
    800023a8:	002a1a13          	slli	s4,s4,0x2
    800023ac:	01410a33          	add	s4,sp,s4
    800023b0:	00010c93          	mv	s9,sp
    800023b4:	00900c13          	li	s8,9
    800023b8:	00c0006f          	j	800023c4 <vprintfmt+0x230>
    800023bc:	ffca2983          	lw	s3,-4(s4)
    800023c0:	ffca0a13          	addi	s4,s4,-4
    800023c4:	05700513          	li	a0,87
    800023c8:	013c6463          	bltu	s8,s3,800023d0 <vprintfmt+0x23c>
    800023cc:	03000513          	li	a0,48
    800023d0:	00048593          	mv	a1,s1
    800023d4:	0135053b          	addw	a0,a0,s3
    800023d8:	000900e7          	jalr	s2
    800023dc:	ff9a10e3          	bne	s4,s9,800023bc <vprintfmt+0x228>
    800023e0:	e19ff06f          	j	800021f8 <vprintfmt+0x64>
    800023e4:	00100793          	li	a5,1
    800023e8:	008b0a13          	addi	s4,s6,8
    800023ec:	00a7c463          	blt	a5,a0,800023f4 <vprintfmt+0x260>
    800023f0:	12050c63          	beqz	a0,80002528 <vprintfmt+0x394>
    800023f4:	000b3983          	ld	s3,0(s6)
    800023f8:	1409c463          	bltz	s3,80002540 <vprintfmt+0x3ac>
    800023fc:	00098793          	mv	a5,s3
    80002400:	000a0b13          	mv	s6,s4
    80002404:	00a00713          	li	a4,10
    80002408:	f51ff06f          	j	80002358 <vprintfmt+0x1c4>
    8000240c:	00174683          	lbu	a3,1(a4)
    80002410:	0015051b          	addiw	a0,a0,1
    80002414:	00040713          	mv	a4,s0
    80002418:	e0dff06f          	j	80002224 <vprintfmt+0x90>
    8000241c:	01000713          	li	a4,16
    80002420:	00100793          	li	a5,1
    80002424:	008b0693          	addi	a3,s6,8
    80002428:	f2a7c4e3          	blt	a5,a0,80002350 <vprintfmt+0x1bc>
    8000242c:	f20512e3          	bnez	a0,80002350 <vprintfmt+0x1bc>
    80002430:	000b6783          	lwu	a5,0(s6)
    80002434:	00068b13          	mv	s6,a3
    80002438:	f21ff06f          	j	80002358 <vprintfmt+0x1c4>
    8000243c:	000b3a03          	ld	s4,0(s6)
    80002440:	008b0b13          	addi	s6,s6,8
    80002444:	100a0c63          	beqz	s4,8000255c <vprintfmt+0x3c8>
    80002448:	09a05863          	blez	s10,800024d8 <vprintfmt+0x344>
    8000244c:	02d00793          	li	a5,45
    80002450:	04fc9c63          	bne	s9,a5,800024a8 <vprintfmt+0x314>
    80002454:	000a4503          	lbu	a0,0(s4)
    80002458:	02050863          	beqz	a0,80002488 <vprintfmt+0x2f4>
    8000245c:	fff00c13          	li	s8,-1
    80002460:	0009c663          	bltz	s3,8000246c <vprintfmt+0x2d8>
    80002464:	fff9899b          	addiw	s3,s3,-1
    80002468:	01898e63          	beq	s3,s8,80002484 <vprintfmt+0x2f0>
    8000246c:	00048593          	mv	a1,s1
    80002470:	001a0a13          	addi	s4,s4,1
    80002474:	000900e7          	jalr	s2
    80002478:	000a4503          	lbu	a0,0(s4)
    8000247c:	fffd0d1b          	addiw	s10,s10,-1
    80002480:	fe0510e3          	bnez	a0,80002460 <vprintfmt+0x2cc>
    80002484:	d7a05ae3          	blez	s10,800021f8 <vprintfmt+0x64>
    80002488:	fffd0d1b          	addiw	s10,s10,-1
    8000248c:	00048593          	mv	a1,s1
    80002490:	02000513          	li	a0,32
    80002494:	000900e7          	jalr	s2
    80002498:	fe0d18e3          	bnez	s10,80002488 <vprintfmt+0x2f4>
    8000249c:	d5dff06f          	j	800021f8 <vprintfmt+0x64>
    800024a0:	0000aa17          	auipc	s4,0xa
    800024a4:	100a0a13          	addi	s4,s4,256 # 8000c5a0 <val+0x4c50>
    800024a8:	000d061b          	sext.w	a2,s10
    800024ac:	000a0793          	mv	a5,s4
    800024b0:	013a06b3          	add	a3,s4,s3
    800024b4:	00099863          	bnez	s3,800024c4 <vprintfmt+0x330>
    800024b8:	0c40006f          	j	8000257c <vprintfmt+0x3e8>
    800024bc:	00178793          	addi	a5,a5,1
    800024c0:	00d78663          	beq	a5,a3,800024cc <vprintfmt+0x338>
    800024c4:	0007c703          	lbu	a4,0(a5)
    800024c8:	fe071ae3          	bnez	a4,800024bc <vprintfmt+0x328>
    800024cc:	41478d33          	sub	s10,a5,s4
    800024d0:	41a60d3b          	subw	s10,a2,s10
    800024d4:	0ba04463          	bgtz	s10,8000257c <vprintfmt+0x3e8>
    800024d8:	000a4503          	lbu	a0,0(s4)
    800024dc:	d0050ee3          	beqz	a0,800021f8 <vprintfmt+0x64>
    800024e0:	fff00c13          	li	s8,-1
    800024e4:	f7dff06f          	j	80002460 <vprintfmt+0x2cc>
    800024e8:	fffd4793          	not	a5,s10
    800024ec:	43f7d793          	srai	a5,a5,0x3f
    800024f0:	00fd7d33          	and	s10,s10,a5
    800024f4:	00174683          	lbu	a3,1(a4)
    800024f8:	000d0d1b          	sext.w	s10,s10
    800024fc:	00040713          	mv	a4,s0
    80002500:	d25ff06f          	j	80002224 <vprintfmt+0x90>
    80002504:	000b2503          	lw	a0,0(s6)
    80002508:	00048593          	mv	a1,s1
    8000250c:	008b0b13          	addi	s6,s6,8
    80002510:	000900e7          	jalr	s2
    80002514:	ce5ff06f          	j	800021f8 <vprintfmt+0x64>
    80002518:	00100793          	li	a5,1
    8000251c:	00000a13          	li	s4,0
    80002520:	e7a7c8e3          	blt	a5,s10,80002390 <vprintfmt+0x1fc>
    80002524:	e85ff06f          	j	800023a8 <vprintfmt+0x214>
    80002528:	000b2983          	lw	s3,0(s6)
    8000252c:	ecdff06f          	j	800023f8 <vprintfmt+0x264>
    80002530:	00800713          	li	a4,8
    80002534:	eedff06f          	j	80002420 <vprintfmt+0x28c>
    80002538:	00a00713          	li	a4,10
    8000253c:	ee5ff06f          	j	80002420 <vprintfmt+0x28c>
    80002540:	00048593          	mv	a1,s1
    80002544:	02d00513          	li	a0,45
    80002548:	000900e7          	jalr	s2
    8000254c:	000a0b13          	mv	s6,s4
    80002550:	413007b3          	neg	a5,s3
    80002554:	00a00713          	li	a4,10
    80002558:	e01ff06f          	j	80002358 <vprintfmt+0x1c4>
    8000255c:	03a05e63          	blez	s10,80002598 <vprintfmt+0x404>
    80002560:	02d00793          	li	a5,45
    80002564:	f2fc9ee3          	bne	s9,a5,800024a0 <vprintfmt+0x30c>
    80002568:	02800513          	li	a0,40
    8000256c:	0000aa17          	auipc	s4,0xa
    80002570:	034a0a13          	addi	s4,s4,52 # 8000c5a0 <val+0x4c50>
    80002574:	fff00c13          	li	s8,-1
    80002578:	ee9ff06f          	j	80002460 <vprintfmt+0x2cc>
    8000257c:	000c8c9b          	sext.w	s9,s9
    80002580:	fffd0d1b          	addiw	s10,s10,-1
    80002584:	00048593          	mv	a1,s1
    80002588:	000c8513          	mv	a0,s9
    8000258c:	000900e7          	jalr	s2
    80002590:	fe0d18e3          	bnez	s10,80002580 <vprintfmt+0x3ec>
    80002594:	f45ff06f          	j	800024d8 <vprintfmt+0x344>
    80002598:	0000aa17          	auipc	s4,0xa
    8000259c:	008a0a13          	addi	s4,s4,8 # 8000c5a0 <val+0x4c50>
    800025a0:	02800513          	li	a0,40
    800025a4:	fff00c13          	li	s8,-1
    800025a8:	eb9ff06f          	j	80002460 <vprintfmt+0x2cc>

00000000800025ac <sprintf_putch.3092>:
    800025ac:	0005b783          	ld	a5,0(a1)
    800025b0:	00a78023          	sb	a0,0(a5)
    800025b4:	0005b783          	ld	a5,0(a1)
    800025b8:	00178793          	addi	a5,a5,1
    800025bc:	00f5b023          	sd	a5,0(a1)
    800025c0:	00008067          	ret

00000000800025c4 <putchar>:
    800025c4:	04022803          	lw	a6,64(tp) # 40 <buflen.2978>
    800025c8:	00020793          	mv	a5,tp
    800025cc:	010787b3          	add	a5,a5,a6
    800025d0:	f9010113          	addi	sp,sp,-112
    800025d4:	0018071b          	addiw	a4,a6,1
    800025d8:	04e22023          	sw	a4,64(tp) # 40 <buflen.2978>
    800025dc:	00a78023          	sb	a0,0(a5)
    800025e0:	00a00593          	li	a1,10
    800025e4:	03f10793          	addi	a5,sp,63
    800025e8:	fc07f793          	andi	a5,a5,-64
    800025ec:	00b50c63          	beq	a0,a1,80002604 <putchar+0x40>
    800025f0:	04000593          	li	a1,64
    800025f4:	00b70863          	beq	a4,a1,80002604 <putchar+0x40>
    800025f8:	00000513          	li	a0,0
    800025fc:	07010113          	addi	sp,sp,112
    80002600:	00008067          	ret
    80002604:	04000593          	li	a1,64
    80002608:	00b7b023          	sd	a1,0(a5)
    8000260c:	00100593          	li	a1,1
    80002610:	00b7b423          	sd	a1,8(a5)
    80002614:	00020693          	mv	a3,tp
    80002618:	00d7b823          	sd	a3,16(a5)
    8000261c:	00e7bc23          	sd	a4,24(a5)
    80002620:	0ff0000f          	fence
    80002624:	fffff697          	auipc	a3,0xfffff
    80002628:	a1c68693          	addi	a3,a3,-1508 # 80001040 <fromhost>
    8000262c:	fffff717          	auipc	a4,0xfffff
    80002630:	9cf73a23          	sd	a5,-1580(a4) # 80001000 <tohost>
    80002634:	0006b703          	ld	a4,0(a3)
    80002638:	fe070ee3          	beqz	a4,80002634 <putchar+0x70>
    8000263c:	fffff717          	auipc	a4,0xfffff
    80002640:	a0073223          	sd	zero,-1532(a4) # 80001040 <fromhost>
    80002644:	0ff0000f          	fence
    80002648:	04022023          	sw	zero,64(tp) # 40 <buflen.2978>
    8000264c:	0007b783          	ld	a5,0(a5)
    80002650:	00000513          	li	a0,0
    80002654:	07010113          	addi	sp,sp,112
    80002658:	00008067          	ret

000000008000265c <setStats>:
    8000265c:	b0002773          	csrr	a4,mcycle
    80002660:	0000a797          	auipc	a5,0xa
    80002664:	f8878793          	addi	a5,a5,-120 # 8000c5e8 <counters>
    80002668:	00051c63          	bnez	a0,80002680 <setStats+0x24>
    8000266c:	0007b683          	ld	a3,0(a5)
    80002670:	0000a617          	auipc	a2,0xa
    80002674:	f3860613          	addi	a2,a2,-200 # 8000c5a8 <val+0x4c58>
    80002678:	00c7b823          	sd	a2,16(a5)
    8000267c:	40d70733          	sub	a4,a4,a3
    80002680:	00e7b023          	sd	a4,0(a5)
    80002684:	b0202773          	csrr	a4,minstret
    80002688:	00051c63          	bnez	a0,800026a0 <setStats+0x44>
    8000268c:	0087b683          	ld	a3,8(a5)
    80002690:	0000a617          	auipc	a2,0xa
    80002694:	f2060613          	addi	a2,a2,-224 # 8000c5b0 <val+0x4c60>
    80002698:	00c7bc23          	sd	a2,24(a5)
    8000269c:	40d70733          	sub	a4,a4,a3
    800026a0:	00e7b423          	sd	a4,8(a5)
    800026a4:	00008067          	ret

00000000800026a8 <tohost_exit>:
    800026a8:	00151793          	slli	a5,a0,0x1
    800026ac:	0017e793          	ori	a5,a5,1
    800026b0:	fffff717          	auipc	a4,0xfffff
    800026b4:	94f73823          	sd	a5,-1712(a4) # 80001000 <tohost>
    800026b8:	0000006f          	j	800026b8 <tohost_exit+0x10>

00000000800026bc <handle_trap>:
    800026bc:	000017b7          	lui	a5,0x1
    800026c0:	a7378793          	addi	a5,a5,-1421 # a73 <buflen.2978+0xa33>
    800026c4:	fffff717          	auipc	a4,0xfffff
    800026c8:	92f73e23          	sd	a5,-1732(a4) # 80001000 <tohost>
    800026cc:	0000006f          	j	800026cc <handle_trap+0x10>

00000000800026d0 <exit>:
    800026d0:	ff010113          	addi	sp,sp,-16
    800026d4:	00113423          	sd	ra,8(sp)
    800026d8:	fd1ff0ef          	jal	ra,800026a8 <tohost_exit>

00000000800026dc <abort>:
    800026dc:	10d00793          	li	a5,269
    800026e0:	fffff717          	auipc	a4,0xfffff
    800026e4:	92f73023          	sd	a5,-1760(a4) # 80001000 <tohost>
    800026e8:	0000006f          	j	800026e8 <abort+0xc>

00000000800026ec <printstr>:
    800026ec:	00054783          	lbu	a5,0(a0)
    800026f0:	f9010113          	addi	sp,sp,-112
    800026f4:	03f10693          	addi	a3,sp,63
    800026f8:	fc06f693          	andi	a3,a3,-64
    800026fc:	06078263          	beqz	a5,80002760 <printstr+0x74>
    80002700:	00050793          	mv	a5,a0
    80002704:	0017c703          	lbu	a4,1(a5)
    80002708:	00178793          	addi	a5,a5,1
    8000270c:	fe071ce3          	bnez	a4,80002704 <printstr+0x18>
    80002710:	40a787b3          	sub	a5,a5,a0
    80002714:	04000713          	li	a4,64
    80002718:	00e6b023          	sd	a4,0(a3)
    8000271c:	00100713          	li	a4,1
    80002720:	00e6b423          	sd	a4,8(a3)
    80002724:	00a6b823          	sd	a0,16(a3)
    80002728:	00f6bc23          	sd	a5,24(a3)
    8000272c:	0ff0000f          	fence
    80002730:	fffff717          	auipc	a4,0xfffff
    80002734:	91070713          	addi	a4,a4,-1776 # 80001040 <fromhost>
    80002738:	fffff797          	auipc	a5,0xfffff
    8000273c:	8cd7b423          	sd	a3,-1848(a5) # 80001000 <tohost>
    80002740:	00073783          	ld	a5,0(a4)
    80002744:	fe078ee3          	beqz	a5,80002740 <printstr+0x54>
    80002748:	fffff797          	auipc	a5,0xfffff
    8000274c:	8e07bc23          	sd	zero,-1800(a5) # 80001040 <fromhost>
    80002750:	0ff0000f          	fence
    80002754:	0006b783          	ld	a5,0(a3)
    80002758:	07010113          	addi	sp,sp,112
    8000275c:	00008067          	ret
    80002760:	00000793          	li	a5,0
    80002764:	fb1ff06f          	j	80002714 <printstr+0x28>

0000000080002768 <thread_entry>:
    80002768:	00051063          	bnez	a0,80002768 <thread_entry>
    8000276c:	00008067          	ret

0000000080002770 <printhex>:
    80002770:	fd010113          	addi	sp,sp,-48
    80002774:	00050793          	mv	a5,a0
    80002778:	02113423          	sd	ra,40(sp)
    8000277c:	00810513          	addi	a0,sp,8
    80002780:	01710613          	addi	a2,sp,23
    80002784:	00900813          	li	a6,9
    80002788:	0080006f          	j	80002790 <printhex+0x20>
    8000278c:	00070613          	mv	a2,a4
    80002790:	00f7f693          	andi	a3,a5,15
    80002794:	00068713          	mv	a4,a3
    80002798:	03000593          	li	a1,48
    8000279c:	00d87463          	bgeu	a6,a3,800027a4 <printhex+0x34>
    800027a0:	05700593          	li	a1,87
    800027a4:	00b7073b          	addw	a4,a4,a1
    800027a8:	00e60023          	sb	a4,0(a2)
    800027ac:	0047d793          	srli	a5,a5,0x4
    800027b0:	fff60713          	addi	a4,a2,-1
    800027b4:	fcc51ce3          	bne	a0,a2,8000278c <printhex+0x1c>
    800027b8:	00010c23          	sb	zero,24(sp)
    800027bc:	f31ff0ef          	jal	ra,800026ec <printstr>
    800027c0:	02813083          	ld	ra,40(sp)
    800027c4:	03010113          	addi	sp,sp,48
    800027c8:	00008067          	ret

00000000800027cc <printf>:
    800027cc:	fa010113          	addi	sp,sp,-96
    800027d0:	02810313          	addi	t1,sp,40
    800027d4:	00050e13          	mv	t3,a0
    800027d8:	02b13423          	sd	a1,40(sp)
    800027dc:	02c13823          	sd	a2,48(sp)
    800027e0:	02d13c23          	sd	a3,56(sp)
    800027e4:	00000517          	auipc	a0,0x0
    800027e8:	de050513          	addi	a0,a0,-544 # 800025c4 <putchar>
    800027ec:	00030693          	mv	a3,t1
    800027f0:	000e0613          	mv	a2,t3
    800027f4:	00000593          	li	a1,0
    800027f8:	00113c23          	sd	ra,24(sp)
    800027fc:	04e13023          	sd	a4,64(sp)
    80002800:	04f13423          	sd	a5,72(sp)
    80002804:	05013823          	sd	a6,80(sp)
    80002808:	05113c23          	sd	a7,88(sp)
    8000280c:	00613423          	sd	t1,8(sp)
    80002810:	985ff0ef          	jal	ra,80002194 <vprintfmt>
    80002814:	01813083          	ld	ra,24(sp)
    80002818:	00000513          	li	a0,0
    8000281c:	06010113          	addi	sp,sp,96
    80002820:	00008067          	ret

0000000080002824 <sprintf>:
    80002824:	fa010113          	addi	sp,sp,-96
    80002828:	03010313          	addi	t1,sp,48
    8000282c:	02813023          	sd	s0,32(sp)
    80002830:	00a13423          	sd	a0,8(sp)
    80002834:	02c13823          	sd	a2,48(sp)
    80002838:	02d13c23          	sd	a3,56(sp)
    8000283c:	00050413          	mv	s0,a0
    80002840:	00058613          	mv	a2,a1
    80002844:	00000517          	auipc	a0,0x0
    80002848:	d6850513          	addi	a0,a0,-664 # 800025ac <sprintf_putch.3092>
    8000284c:	00810593          	addi	a1,sp,8
    80002850:	00030693          	mv	a3,t1
    80002854:	02113423          	sd	ra,40(sp)
    80002858:	04f13423          	sd	a5,72(sp)
    8000285c:	04e13023          	sd	a4,64(sp)
    80002860:	05013823          	sd	a6,80(sp)
    80002864:	05113c23          	sd	a7,88(sp)
    80002868:	00613c23          	sd	t1,24(sp)
    8000286c:	929ff0ef          	jal	ra,80002194 <vprintfmt>
    80002870:	00813783          	ld	a5,8(sp)
    80002874:	00078023          	sb	zero,0(a5)
    80002878:	00813503          	ld	a0,8(sp)
    8000287c:	02813083          	ld	ra,40(sp)
    80002880:	4085053b          	subw	a0,a0,s0
    80002884:	02013403          	ld	s0,32(sp)
    80002888:	06010113          	addi	sp,sp,96
    8000288c:	00008067          	ret

0000000080002890 <memcpy>:
    80002890:	00c5e7b3          	or	a5,a1,a2
    80002894:	00f567b3          	or	a5,a0,a5
    80002898:	0077f793          	andi	a5,a5,7
    8000289c:	00c506b3          	add	a3,a0,a2
    800028a0:	02078463          	beqz	a5,800028c8 <memcpy+0x38>
    800028a4:	00c58633          	add	a2,a1,a2
    800028a8:	00050793          	mv	a5,a0
    800028ac:	02d57e63          	bgeu	a0,a3,800028e8 <memcpy+0x58>
    800028b0:	0005c703          	lbu	a4,0(a1)
    800028b4:	00158593          	addi	a1,a1,1
    800028b8:	00178793          	addi	a5,a5,1
    800028bc:	fee78fa3          	sb	a4,-1(a5)
    800028c0:	feb618e3          	bne	a2,a1,800028b0 <memcpy+0x20>
    800028c4:	00008067          	ret
    800028c8:	fed57ee3          	bgeu	a0,a3,800028c4 <memcpy+0x34>
    800028cc:	00050793          	mv	a5,a0
    800028d0:	0005b703          	ld	a4,0(a1)
    800028d4:	00878793          	addi	a5,a5,8
    800028d8:	00858593          	addi	a1,a1,8
    800028dc:	fee7bc23          	sd	a4,-8(a5)
    800028e0:	fed7e8e3          	bltu	a5,a3,800028d0 <memcpy+0x40>
    800028e4:	00008067          	ret
    800028e8:	00008067          	ret

00000000800028ec <memset>:
    800028ec:	00c567b3          	or	a5,a0,a2
    800028f0:	0077f793          	andi	a5,a5,7
    800028f4:	00c50633          	add	a2,a0,a2
    800028f8:	0ff5f593          	andi	a1,a1,255
    800028fc:	00078e63          	beqz	a5,80002918 <memset+0x2c>
    80002900:	00050793          	mv	a5,a0
    80002904:	04c57263          	bgeu	a0,a2,80002948 <memset+0x5c>
    80002908:	00178793          	addi	a5,a5,1
    8000290c:	feb78fa3          	sb	a1,-1(a5)
    80002910:	fef61ce3          	bne	a2,a5,80002908 <memset+0x1c>
    80002914:	00008067          	ret
    80002918:	00859793          	slli	a5,a1,0x8
    8000291c:	00f5e7b3          	or	a5,a1,a5
    80002920:	01079593          	slli	a1,a5,0x10
    80002924:	00b7e7b3          	or	a5,a5,a1
    80002928:	02079713          	slli	a4,a5,0x20
    8000292c:	00e7e7b3          	or	a5,a5,a4
    80002930:	fec572e3          	bgeu	a0,a2,80002914 <memset+0x28>
    80002934:	00050713          	mv	a4,a0
    80002938:	00870713          	addi	a4,a4,8
    8000293c:	fef73c23          	sd	a5,-8(a4)
    80002940:	fec76ce3          	bltu	a4,a2,80002938 <memset+0x4c>
    80002944:	00008067          	ret
    80002948:	00008067          	ret

000000008000294c <_init>:
    8000294c:	f5010113          	addi	sp,sp,-176
    80002950:	0000a797          	auipc	a5,0xa
    80002954:	cb878793          	addi	a5,a5,-840 # 8000c608 <_tdata_begin>
    80002958:	09413023          	sd	s4,128(sp)
    8000295c:	0000aa17          	auipc	s4,0xa
    80002960:	caca0a13          	addi	s4,s4,-852 # 8000c608 <_tdata_begin>
    80002964:	09313423          	sd	s3,136(sp)
    80002968:	40fa09b3          	sub	s3,s4,a5
    8000296c:	08913c23          	sd	s1,152(sp)
    80002970:	09213823          	sd	s2,144(sp)
    80002974:	00050493          	mv	s1,a0
    80002978:	00058913          	mv	s2,a1
    8000297c:	00020513          	mv	a0,tp
    80002980:	00078593          	mv	a1,a5
    80002984:	00098613          	mv	a2,s3
    80002988:	0a113423          	sd	ra,168(sp)
    8000298c:	0a813023          	sd	s0,160(sp)
    80002990:	07513c23          	sd	s5,120(sp)
    80002994:	00020a93          	mv	s5,tp
    80002998:	ef9ff0ef          	jal	ra,80002890 <memcpy>
    8000299c:	0000a617          	auipc	a2,0xa
    800029a0:	ce860613          	addi	a2,a2,-792 # 8000c684 <_tbss_end>
    800029a4:	41460633          	sub	a2,a2,s4
    800029a8:	00000593          	li	a1,0
    800029ac:	013a8533          	add	a0,s5,s3
    800029b0:	f3dff0ef          	jal	ra,800028ec <memset>
    800029b4:	00090593          	mv	a1,s2
    800029b8:	00048513          	mv	a0,s1
    800029bc:	dadff0ef          	jal	ra,80002768 <thread_entry>
    800029c0:	00000593          	li	a1,0
    800029c4:	00000513          	li	a0,0
    800029c8:	1bc000ef          	jal	ra,80002b84 <main>
    800029cc:	0000a917          	auipc	s2,0xa
    800029d0:	c1c90913          	addi	s2,s2,-996 # 8000c5e8 <counters>
    800029d4:	00093683          	ld	a3,0(s2)
    800029d8:	03f10413          	addi	s0,sp,63
    800029dc:	fc047413          	andi	s0,s0,-64
    800029e0:	00050493          	mv	s1,a0
    800029e4:	04069063          	bnez	a3,80002a24 <_init+0xd8>
    800029e8:	00893683          	ld	a3,8(s2)
    800029ec:	00069663          	bnez	a3,800029f8 <_init+0xac>
    800029f0:	00048513          	mv	a0,s1
    800029f4:	cb5ff0ef          	jal	ra,800026a8 <tohost_exit>
    800029f8:	00040993          	mv	s3,s0
    800029fc:	01893603          	ld	a2,24(s2)
    80002a00:	00098513          	mv	a0,s3
    80002a04:	0000a597          	auipc	a1,0xa
    80002a08:	bd458593          	addi	a1,a1,-1068 # 8000c5d8 <val+0x4c88>
    80002a0c:	e19ff0ef          	jal	ra,80002824 <sprintf>
    80002a10:	00a989b3          	add	s3,s3,a0
    80002a14:	fd340ee3          	beq	s0,s3,800029f0 <_init+0xa4>
    80002a18:	00040513          	mv	a0,s0
    80002a1c:	cd1ff0ef          	jal	ra,800026ec <printstr>
    80002a20:	fd1ff06f          	j	800029f0 <_init+0xa4>
    80002a24:	01093603          	ld	a2,16(s2)
    80002a28:	0000a597          	auipc	a1,0xa
    80002a2c:	bb058593          	addi	a1,a1,-1104 # 8000c5d8 <val+0x4c88>
    80002a30:	00040513          	mv	a0,s0
    80002a34:	df1ff0ef          	jal	ra,80002824 <sprintf>
    80002a38:	00893683          	ld	a3,8(s2)
    80002a3c:	00a409b3          	add	s3,s0,a0
    80002a40:	fc068ae3          	beqz	a3,80002a14 <_init+0xc8>
    80002a44:	fb9ff06f          	j	800029fc <_init+0xb0>

0000000080002a48 <strlen>:
    80002a48:	00054783          	lbu	a5,0(a0)
    80002a4c:	00078e63          	beqz	a5,80002a68 <strlen+0x20>
    80002a50:	00050793          	mv	a5,a0
    80002a54:	0017c703          	lbu	a4,1(a5)
    80002a58:	00178793          	addi	a5,a5,1
    80002a5c:	fe071ce3          	bnez	a4,80002a54 <strlen+0xc>
    80002a60:	40a78533          	sub	a0,a5,a0
    80002a64:	00008067          	ret
    80002a68:	00000513          	li	a0,0
    80002a6c:	00008067          	ret

0000000080002a70 <strnlen>:
    80002a70:	00050613          	mv	a2,a0
    80002a74:	00b606b3          	add	a3,a2,a1
    80002a78:	00058513          	mv	a0,a1
    80002a7c:	00060793          	mv	a5,a2
    80002a80:	00059863          	bnez	a1,80002a90 <strnlen+0x20>
    80002a84:	01c0006f          	j	80002aa0 <strnlen+0x30>
    80002a88:	00178793          	addi	a5,a5,1
    80002a8c:	00f68863          	beq	a3,a5,80002a9c <strnlen+0x2c>
    80002a90:	0007c703          	lbu	a4,0(a5)
    80002a94:	fe071ae3          	bnez	a4,80002a88 <strnlen+0x18>
    80002a98:	40c78533          	sub	a0,a5,a2
    80002a9c:	00008067          	ret
    80002aa0:	00008067          	ret

0000000080002aa4 <strcmp>:
    80002aa4:	00054783          	lbu	a5,0(a0)
    80002aa8:	00158593          	addi	a1,a1,1
    80002aac:	00150513          	addi	a0,a0,1
    80002ab0:	fff5c703          	lbu	a4,-1(a1)
    80002ab4:	00078a63          	beqz	a5,80002ac8 <strcmp+0x24>
    80002ab8:	fee786e3          	beq	a5,a4,80002aa4 <strcmp>
    80002abc:	0007851b          	sext.w	a0,a5
    80002ac0:	40e5053b          	subw	a0,a0,a4
    80002ac4:	00008067          	ret
    80002ac8:	00000513          	li	a0,0
    80002acc:	ff5ff06f          	j	80002ac0 <strcmp+0x1c>

0000000080002ad0 <strcpy>:
    80002ad0:	00050793          	mv	a5,a0
    80002ad4:	0005c703          	lbu	a4,0(a1)
    80002ad8:	00178793          	addi	a5,a5,1
    80002adc:	00158593          	addi	a1,a1,1
    80002ae0:	fee78fa3          	sb	a4,-1(a5)
    80002ae4:	fe0718e3          	bnez	a4,80002ad4 <strcpy+0x4>
    80002ae8:	00008067          	ret

0000000080002aec <atol>:
    80002aec:	00054703          	lbu	a4,0(a0)
    80002af0:	02000693          	li	a3,32
    80002af4:	00050793          	mv	a5,a0
    80002af8:	00d71863          	bne	a4,a3,80002b08 <atol+0x1c>
    80002afc:	0017c703          	lbu	a4,1(a5)
    80002b00:	00178793          	addi	a5,a5,1
    80002b04:	fed70ce3          	beq	a4,a3,80002afc <atol+0x10>
    80002b08:	02d00693          	li	a3,45
    80002b0c:	06d70063          	beq	a4,a3,80002b6c <atol+0x80>
    80002b10:	02b00693          	li	a3,43
    80002b14:	04d70063          	beq	a4,a3,80002b54 <atol+0x68>
    80002b18:	0007c683          	lbu	a3,0(a5)
    80002b1c:	00000593          	li	a1,0
    80002b20:	04068263          	beqz	a3,80002b64 <atol+0x78>
    80002b24:	00000513          	li	a0,0
    80002b28:	00178793          	addi	a5,a5,1
    80002b2c:	fd06861b          	addiw	a2,a3,-48
    80002b30:	00251713          	slli	a4,a0,0x2
    80002b34:	0007c683          	lbu	a3,0(a5)
    80002b38:	00a70533          	add	a0,a4,a0
    80002b3c:	00151513          	slli	a0,a0,0x1
    80002b40:	00a60533          	add	a0,a2,a0
    80002b44:	fe0692e3          	bnez	a3,80002b28 <atol+0x3c>
    80002b48:	02058063          	beqz	a1,80002b68 <atol+0x7c>
    80002b4c:	40a00533          	neg	a0,a0
    80002b50:	00008067          	ret
    80002b54:	0017c683          	lbu	a3,1(a5)
    80002b58:	00000593          	li	a1,0
    80002b5c:	00178793          	addi	a5,a5,1
    80002b60:	fc0692e3          	bnez	a3,80002b24 <atol+0x38>
    80002b64:	00000513          	li	a0,0
    80002b68:	00008067          	ret
    80002b6c:	0017c683          	lbu	a3,1(a5)
    80002b70:	00100593          	li	a1,1
    80002b74:	00178793          	addi	a5,a5,1
    80002b78:	fa0696e3          	bnez	a3,80002b24 <atol+0x38>
    80002b7c:	00000513          	li	a0,0
    80002b80:	fe9ff06f          	j	80002b68 <atol+0x7c>

Disassembly of section .text.startup:

0000000080002b84 <main>:
    80002b84:	81010113          	addi	sp,sp,-2032
    80002b88:	00001737          	lui	a4,0x1
    80002b8c:	7e113423          	sd	ra,2024(sp)
    80002b90:	7e813023          	sd	s0,2016(sp)
    80002b94:	fffff7b7          	lui	a5,0xfffff
    80002b98:	84010113          	addi	sp,sp,-1984
    80002b9c:	fa070713          	addi	a4,a4,-96 # fa0 <buflen.2978+0xf60>
    80002ba0:	06078793          	addi	a5,a5,96 # fffffffffffff060 <_tbss_end+0xffffffff7fff29dc>
    80002ba4:	00270733          	add	a4,a4,sp
    80002ba8:	00f70433          	add	s0,a4,a5
    80002bac:	00002697          	auipc	a3,0x2
    80002bb0:	88468693          	addi	a3,a3,-1916 # 80004430 <x>
    80002bb4:	00000717          	auipc	a4,0x0
    80002bb8:	10470713          	addi	a4,a4,260 # 80002cb8 <ptr>
    80002bbc:	00003617          	auipc	a2,0x3
    80002bc0:	81460613          	addi	a2,a2,-2028 # 800053d0 <idx>
    80002bc4:	00005597          	auipc	a1,0x5
    80002bc8:	d8c58593          	addi	a1,a1,-628 # 80007950 <val>
    80002bcc:	00040793          	mv	a5,s0
    80002bd0:	1f400513          	li	a0,500
    80002bd4:	c2cff0ef          	jal	ra,80002000 <spmv>
    80002bd8:	00100513          	li	a0,1
    80002bdc:	a81ff0ef          	jal	ra,8000265c <setStats>
    80002be0:	00000717          	auipc	a4,0x0
    80002be4:	0d870713          	addi	a4,a4,216 # 80002cb8 <ptr>
    80002be8:	00040793          	mv	a5,s0
    80002bec:	00002697          	auipc	a3,0x2
    80002bf0:	84468693          	addi	a3,a3,-1980 # 80004430 <x>
    80002bf4:	00005597          	auipc	a1,0x5
    80002bf8:	d5c58593          	addi	a1,a1,-676 # 80007950 <val>
    80002bfc:	00002617          	auipc	a2,0x2
    80002c00:	7d460613          	addi	a2,a2,2004 # 800053d0 <idx>
    80002c04:	1f400513          	li	a0,500
    80002c08:	bf8ff0ef          	jal	ra,80002000 <spmv>
    80002c0c:	00000513          	li	a0,0
    80002c10:	a4dff0ef          	jal	ra,8000265c <setStats>
    80002c14:	00000717          	auipc	a4,0x0
    80002c18:	09c73707          	fld	fa4,156(a4) # 80002cb0 <main+0x12c>
    80002c1c:	00040793          	mv	a5,s0
    80002c20:	00001697          	auipc	a3,0x1
    80002c24:	87868693          	addi	a3,a3,-1928 # 80003498 <verify_data+0x8>
    80002c28:	00000713          	li	a4,0
    80002c2c:	1f400593          	li	a1,500
    80002c30:	0080006f          	j	80002c38 <main+0xb4>
    80002c34:	ff86b707          	fld	fa4,-8(a3)
    80002c38:	0007b607          	fld	fa2,0(a5)
    80002c3c:	0006b787          	fld	fa5,0(a3)
    80002c40:	0087b687          	fld	fa3,8(a5)
    80002c44:	a2e62553          	feq.d	a0,fa2,fa4
    80002c48:	01068693          	addi	a3,a3,16
    80002c4c:	a2d7a653          	feq.d	a2,fa5,fa3
    80002c50:	01078793          	addi	a5,a5,16
    80002c54:	02060463          	beqz	a2,80002c7c <main+0xf8>
    80002c58:	02050263          	beqz	a0,80002c7c <main+0xf8>
    80002c5c:	0027071b          	addiw	a4,a4,2
    80002c60:	fcb71ae3          	bne	a4,a1,80002c34 <main+0xb0>
    80002c64:	00000513          	li	a0,0
    80002c68:	7c010113          	addi	sp,sp,1984
    80002c6c:	7e813083          	ld	ra,2024(sp)
    80002c70:	7e013403          	ld	s0,2016(sp)
    80002c74:	7f010113          	addi	sp,sp,2032
    80002c78:	00008067          	ret
    80002c7c:	0017071b          	addiw	a4,a4,1
    80002c80:	00a7053b          	addw	a0,a4,a0
    80002c84:	fe5ff06f          	j	80002c68 <main+0xe4>
    80002c88:	ff010113          	addi	sp,sp,-16
    80002c8c:	0000a517          	auipc	a0,0xa
    80002c90:	93450513          	addi	a0,a0,-1740 # 8000c5c0 <val+0x4c70>
    80002c94:	00113423          	sd	ra,8(sp)
    80002c98:	a55ff0ef          	jal	ra,800026ec <printstr>
    80002c9c:	00813083          	ld	ra,8(sp)
    80002ca0:	fff00513          	li	a0,-1
    80002ca4:	01010113          	addi	sp,sp,16
    80002ca8:	00008067          	ret
